
kernel.elf:     file format elf32-littlearm


Disassembly of section .text.except_vec:

80000000 <vec_reset>:
80000000:	e59ff018 	ldr	pc, [pc, #24]	; 80000020 <vec_fiq+0x4>

80000004 <vec_undefined_instruct>:
80000004:	e1b0f00e 	movs	pc, lr

80000008 <vec_soft>:
80000008:	e59ff014 	ldr	pc, [pc, #20]	; 80000024 <vec_fiq+0x8>

8000000c <vec_prefetch>:
8000000c:	e25ef004 	subs	pc, lr, #4

80000010 <vec_data>:
80000010:	e25ef008 	subs	pc, lr, #8

80000014 <vec_reserved>:
80000014:	e25ef004 	subs	pc, lr, #4

80000018 <vec_irq>:
80000018:	e59ff008 	ldr	pc, [pc, #8]	; 80000028 <vec_fiq+0xc>

8000001c <vec_fiq>:
8000001c:	e25ef004 	subs	pc, lr, #4
80000020:	80010000 	.word	0x80010000
80000024:	80012804 	.word	0x80012804
80000028:	8001140c 	.word	0x8001140c

Disassembly of section .text.boot:

80010000 <_start>:
80010000:	e10f0000 	mrs	r0, CPSR
80010004:	e3c0001f 	bic	r0, r0, #31
80010008:	e3800013 	orr	r0, r0, #19
8001000c:	e121f000 	msr	CPSR_c, r0
80010010:	e1a00000 	nop			; (mov r0, r0)
80010014:	e10f0000 	mrs	r0, CPSR
80010018:	e3800080 	orr	r0, r0, #128	; 0x80
8001001c:	e3800040 	orr	r0, r0, #64	; 0x40
80010020:	e121f000 	msr	CPSR_c, r0
80010024:	e1a00000 	nop			; (mov r0, r0)
80010028:	e3a00005 	mov	r0, #5
8001002c:	e59f1088 	ldr	r1, [pc, #136]	; 800100bc <endless+0x4>
80010030:	e3a02000 	mov	r2, #0
80010034:	ee030f10 	mcr	15, 0, r0, cr3, cr0, {0}
80010038:	ee021f10 	mcr	15, 0, r1, cr2, cr0, {0}
8001003c:	ee021f30 	mcr	15, 0, r1, cr2, cr0, {1}
80010040:	ee022f50 	mcr	15, 0, r2, cr2, cr0, {2}
80010044:	e1a00000 	nop			; (mov r0, r0)
80010048:	ee110f30 	mrc	15, 0, r0, cr1, cr0, {1}
8001004c:	e3800040 	orr	r0, r0, #64	; 0x40
80010050:	ee010f30 	mcr	15, 0, r0, cr1, cr0, {1}
80010054:	e1a00000 	nop			; (mov r0, r0)
80010058:	e3a00000 	mov	r0, #0
8001005c:	ee070f15 	mcr	15, 0, r0, cr7, cr5, {0}
80010060:	ee070fd5 	mcr	15, 0, r0, cr7, cr5, {6}
80010064:	e1a00000 	nop			; (mov r0, r0)
80010068:	ee110f10 	mrc	15, 0, r0, cr1, cr0, {0}
8001006c:	e3800001 	orr	r0, r0, #1
80010070:	ee010f10 	mcr	15, 0, r0, cr1, cr0, {0}
80010074:	e1a00000 	nop			; (mov r0, r0)
80010078:	e59fe040 	ldr	lr, [pc, #64]	; 800100c0 <endless+0x8>
8001007c:	e12fff1e 	bx	lr

80010080 <high_addr>:
80010080:	ee110f10 	mrc	15, 0, r0, cr1, cr0, {0}
80010084:	e3800004 	orr	r0, r0, #4
80010088:	e3800a01 	orr	r0, r0, #4096	; 0x1000
8001008c:	e3800b02 	orr	r0, r0, #2048	; 0x800
80010090:	e3800002 	orr	r0, r0, #2
80010094:	ee010f10 	mcr	15, 0, r0, cr1, cr0, {0}
80010098:	e1a00000 	nop			; (mov r0, r0)
8001009c:	ee110f10 	mrc	15, 0, r0, cr1, cr0, {0}
800100a0:	e3800a02 	orr	r0, r0, #8192	; 0x2000
800100a4:	ee010f10 	mcr	15, 0, r0, cr1, cr0, {0}
800100a8:	e1a00000 	nop			; (mov r0, r0)
800100ac:	e59fd010 	ldr	sp, [pc, #16]	; 800100c4 <endless+0xc>
800100b0:	eb000a38 	bl	80012998 <init_boot_pgdir>
800100b4:	eb001199 	bl	80014720 <main>

800100b8 <endless>:
800100b8:	eafffffe 	b	800100b8 <endless>
800100bc:	40020000 	.word	0x40020000
800100c0:	80010080 	.word	0x80010080
800100c4:	803fff00 	.word	0x803fff00

Disassembly of section .text:

800100c8 <raise>:
800100c8:	e1a03000 	mov	r3, r0
800100cc:	e92d4010 	push	{r4, lr}
800100d0:	e59f2008 	ldr	r2, [pc, #8]	; 800100e0 <raise+0x18>
800100d4:	e3a01012 	mov	r1, #18
800100d8:	e59f0004 	ldr	r0, [pc, #4]	; 800100e4 <raise+0x1c>
800100dc:	eb00079d 	bl	80011f58 <_panic>
800100e0:	8001474c 	.word	0x8001474c
800100e4:	80014760 	.word	0x80014760

800100e8 <armv7_init>:
800100e8:	e92d4070 	push	{r4, r5, r6, lr}
800100ec:	e3a04000 	mov	r4, #0
800100f0:	e59f0080 	ldr	r0, [pc, #128]	; 80010178 <armv7_init+0x90>
800100f4:	eb000788 	bl	80011f1c <printf>
800100f8:	eb000a41 	bl	80012a04 <armv7_detect_memory>
800100fc:	eb000a48 	bl	80012a24 <armv7_vm_init>
80010100:	eb000a6d 	bl	80012abc <page_init>
80010104:	eb000c12 	bl	80013154 <physical_memory_manage_check>
80010108:	eb000ccf 	bl	8001344c <page_check>
8001010c:	eb0001be 	bl	8001080c <env_init>
80010110:	eb0007ca 	bl	80012040 <sched_init>
80010114:	eb00034d 	bl	80010e50 <env_check>
80010118:	eb0009dc 	bl	80012890 <trap_init>
8001011c:	e59f3058 	ldr	r3, [pc, #88]	; 8001017c <armv7_init+0x94>
80010120:	e3a02002 	mov	r2, #2
80010124:	e5931000 	ldr	r1, [r3]
80010128:	e59f0050 	ldr	r0, [pc, #80]	; 80010180 <armv7_init+0x98>
8001012c:	eb000262 	bl	80010abc <env_create_priority>
80010130:	e59f004c 	ldr	r0, [pc, #76]	; 80010184 <armv7_init+0x9c>
80010134:	eb000778 	bl	80011f1c <printf>
80010138:	eb0000cb 	bl	8001046c <timer2_init>
8001013c:	e1a03004 	mov	r3, r4
80010140:	e59f5040 	ldr	r5, [pc, #64]	; 80010188 <armv7_init+0xa0>
80010144:	e2833001 	add	r3, r3, #1
80010148:	e3130301 	tst	r3, #67108864	; 0x4000000
8001014c:	0afffffc 	beq	80010144 <armv7_init+0x5c>
80010150:	e2840030 	add	r0, r4, #48	; 0x30
80010154:	eb00003e 	bl	80010254 <uart0_putc>
80010158:	e2842001 	add	r2, r4, #1
8001015c:	e0c10295 	smull	r0, r1, r5, r2
80010160:	e1a04fc2 	asr	r4, r2, #31
80010164:	e0644141 	rsb	r4, r4, r1, asr #2
80010168:	e0844104 	add	r4, r4, r4, lsl #2
8001016c:	e3a03000 	mov	r3, #0
80010170:	e0424084 	sub	r4, r2, r4, lsl #1
80010174:	eafffff2 	b	80010144 <armv7_init+0x5c>
80010178:	8001479c 	.word	0x8001479c
8001017c:	80024004 	.word	0x80024004
80010180:	80024008 	.word	0x80024008
80010184:	800147bc 	.word	0x800147bc
80010188:	66666667 	.word	0x66666667

8001018c <bcopy>:
8001018c:	e0812002 	add	r2, r1, r2
80010190:	e2813003 	add	r3, r1, #3
80010194:	e1520003 	cmp	r2, r3
80010198:	e52de004 	push	{lr}		; (str lr, [sp, #-4]!)
8001019c:	9a00000c 	bls	800101d4 <bcopy+0x48>
800101a0:	e1a03001 	mov	r3, r1
800101a4:	e240c004 	sub	ip, r0, #4
800101a8:	e5bce004 	ldr	lr, [ip, #4]!
800101ac:	e483e004 	str	lr, [r3], #4
800101b0:	e283e003 	add	lr, r3, #3
800101b4:	e152000e 	cmp	r2, lr
800101b8:	8afffffa 	bhi	800101a8 <bcopy+0x1c>
800101bc:	e0423001 	sub	r3, r2, r1
800101c0:	e2433004 	sub	r3, r3, #4
800101c4:	e3c33003 	bic	r3, r3, #3
800101c8:	e2833004 	add	r3, r3, #4
800101cc:	e0811003 	add	r1, r1, r3
800101d0:	e0800003 	add	r0, r0, r3
800101d4:	e1520001 	cmp	r2, r1
800101d8:	949df004 	popls	{pc}		; (ldrls pc, [sp], #4)
800101dc:	e2400001 	sub	r0, r0, #1
800101e0:	e5f03001 	ldrb	r3, [r0, #1]!
800101e4:	e4c13001 	strb	r3, [r1], #1
800101e8:	e1520001 	cmp	r2, r1
800101ec:	1afffffb 	bne	800101e0 <bcopy+0x54>
800101f0:	e49df004 	pop	{pc}		; (ldr pc, [sp], #4)

800101f4 <memset>:
800101f4:	e92d4070 	push	{r4, r5, r6, lr}
800101f8:	e1a05001 	mov	r5, r1
800101fc:	e1a04002 	mov	r4, r2
80010200:	e1a01000 	mov	r1, r0
80010204:	e1a03002 	mov	r3, r2
80010208:	e1a06000 	mov	r6, r0
8001020c:	e1a02005 	mov	r2, r5
80010210:	e59f0038 	ldr	r0, [pc, #56]	; 80010250 <memset+0x5c>
80010214:	eb000740 	bl	80011f1c <printf>
80010218:	e20510ff 	and	r1, r5, #255	; 0xff
8001021c:	e1a03801 	lsl	r3, r1, #16
80010220:	e1833401 	orr	r3, r3, r1, lsl #8
80010224:	e1833001 	orr	r3, r3, r1
80010228:	e3540000 	cmp	r4, #0
8001022c:	e1831c01 	orr	r1, r3, r1, lsl #24
80010230:	0a000004 	beq	80010248 <memset+0x54>
80010234:	e3a03000 	mov	r3, #0
80010238:	e2833004 	add	r3, r3, #4
8001023c:	e1540003 	cmp	r4, r3
80010240:	8afffffc 	bhi	80010238 <memset+0x44>
80010244:	e5861000 	str	r1, [r6]
80010248:	e3a00000 	mov	r0, #0
8001024c:	e8bd8070 	pop	{r4, r5, r6, pc}
80010250:	800147c8 	.word	0x800147c8

80010254 <uart0_putc>:
80010254:	e59f2010 	ldr	r2, [pc, #16]	; 8001026c <uart0_putc+0x18>
80010258:	e5923014 	ldr	r3, [r2, #20]
8001025c:	e3130040 	tst	r3, #64	; 0x40
80010260:	0afffffc 	beq	80010258 <uart0_putc+0x4>
80010264:	e5820000 	str	r0, [r2]
80010268:	e12fff1e 	bx	lr
8001026c:	c0028000 	.word	0xc0028000

80010270 <uart0_puts>:
80010270:	e5d03000 	ldrb	r3, [r0]
80010274:	e3530000 	cmp	r3, #0
80010278:	012fff1e 	bxeq	lr
8001027c:	e3a0c00d 	mov	ip, #13
80010280:	e59f203c 	ldr	r2, [pc, #60]	; 800102c4 <uart0_puts+0x54>
80010284:	e353000a 	cmp	r3, #10
80010288:	0a000008 	beq	800102b0 <uart0_puts+0x40>
8001028c:	e4d01001 	ldrb	r1, [r0], #1
80010290:	e5923014 	ldr	r3, [r2, #20]
80010294:	e3130040 	tst	r3, #64	; 0x40
80010298:	0afffffc 	beq	80010290 <uart0_puts+0x20>
8001029c:	e5821000 	str	r1, [r2]
800102a0:	e5d03000 	ldrb	r3, [r0]
800102a4:	e3530000 	cmp	r3, #0
800102a8:	1afffff5 	bne	80010284 <uart0_puts+0x14>
800102ac:	e12fff1e 	bx	lr
800102b0:	e5923014 	ldr	r3, [r2, #20]
800102b4:	e3130040 	tst	r3, #64	; 0x40
800102b8:	0afffffc 	beq	800102b0 <uart0_puts+0x40>
800102bc:	e582c000 	str	ip, [r2]
800102c0:	eafffff1 	b	8001028c <uart0_puts+0x1c>
800102c4:	c0028000 	.word	0xc0028000

800102c8 <uart0_getc>:
800102c8:	e59f2014 	ldr	r2, [pc, #20]	; 800102e4 <uart0_getc+0x1c>
800102cc:	e5923014 	ldr	r3, [r2, #20]
800102d0:	e3130001 	tst	r3, #1
800102d4:	0afffffc 	beq	800102cc <uart0_getc+0x4>
800102d8:	e5920000 	ldr	r0, [r2]
800102dc:	e20000ff 	and	r0, r0, #255	; 0xff
800102e0:	e12fff1e 	bx	lr
800102e4:	c0028000 	.word	0xc0028000

800102e8 <gicd_ctrl_enable>:
800102e8:	e3a00000 	mov	r0, #0
800102ec:	e3a03020 	mov	r3, #32
800102f0:	e1a01000 	mov	r1, r0
800102f4:	e59fc064 	ldr	ip, [pc, #100]	; 80010360 <gicd_ctrl_enable+0x78>
800102f8:	e59f2064 	ldr	r2, [pc, #100]	; 80010364 <gicd_ctrl_enable+0x7c>
800102fc:	e58c0000 	str	r0, [ip]
80010300:	e7821143 	str	r1, [r2, r3, asr #2]
80010304:	e2833010 	add	r3, r3, #16
80010308:	e3530080 	cmp	r3, #128	; 0x80
8001030c:	1afffffb 	bne	80010300 <gicd_ctrl_enable+0x18>
80010310:	e59f3050 	ldr	r3, [pc, #80]	; 80010368 <gicd_ctrl_enable+0x80>
80010314:	e59f1050 	ldr	r1, [pc, #80]	; 8001036c <gicd_ctrl_enable+0x84>
80010318:	e59f2050 	ldr	r2, [pc, #80]	; 80010370 <gicd_ctrl_enable+0x88>
8001031c:	e4831004 	str	r1, [r3], #4
80010320:	e1530002 	cmp	r3, r2
80010324:	1afffffc 	bne	8001031c <gicd_ctrl_enable+0x34>
80010328:	e59f3044 	ldr	r3, [pc, #68]	; 80010374 <gicd_ctrl_enable+0x8c>
8001032c:	e59f1044 	ldr	r1, [pc, #68]	; 80010378 <gicd_ctrl_enable+0x90>
80010330:	e59f2044 	ldr	r2, [pc, #68]	; 8001037c <gicd_ctrl_enable+0x94>
80010334:	e4831004 	str	r1, [r3], #4
80010338:	e1530002 	cmp	r3, r2
8001033c:	1afffffc 	bne	80010334 <gicd_ctrl_enable+0x4c>
80010340:	e3e02000 	mvn	r2, #0
80010344:	e3a01001 	mov	r1, #1
80010348:	e59f3010 	ldr	r3, [pc, #16]	; 80010360 <gicd_ctrl_enable+0x78>
8001034c:	e5832184 	str	r2, [r3, #388]	; 0x184
80010350:	e5832188 	str	r2, [r3, #392]	; 0x188
80010354:	e583218c 	str	r2, [r3, #396]	; 0x18c
80010358:	e5831000 	str	r1, [r3]
8001035c:	e12fff1e 	bx	lr
80010360:	c0081000 	.word	0xc0081000
80010364:	c0081c00 	.word	0xc0081c00
80010368:	c0081820 	.word	0xc0081820
8001036c:	01010101 	.word	0x01010101
80010370:	c008187c 	.word	0xc008187c
80010374:	c0081420 	.word	0xc0081420
80010378:	a0a0a0a0 	.word	0xa0a0a0a0
8001037c:	c008147c 	.word	0xc008147c

80010380 <gicd_set_enable>:
80010380:	e3a03001 	mov	r3, #1
80010384:	e52de004 	push	{lr}		; (str lr, [sp, #-4]!)
80010388:	e59fc020 	ldr	ip, [pc, #32]	; 800103b0 <gicd_set_enable+0x30>
8001038c:	e200e01f 	and	lr, r0, #31
80010390:	e59f101c 	ldr	r1, [pc, #28]	; 800103b4 <gicd_set_enable+0x34>
80010394:	e59f201c 	ldr	r2, [pc, #28]	; 800103b8 <gicd_set_enable+0x38>
80010398:	e1a002a0 	lsr	r0, r0, #5
8001039c:	e1a03e13 	lsl	r3, r3, lr
800103a0:	e78c3100 	str	r3, [ip, r0, lsl #2]
800103a4:	e7813100 	str	r3, [r1, r0, lsl #2]
800103a8:	e7823100 	str	r3, [r2, r0, lsl #2]
800103ac:	e49df004 	pop	{pc}		; (ldr pc, [sp], #4)
800103b0:	c0081100 	.word	0xc0081100
800103b4:	c0081280 	.word	0xc0081280
800103b8:	c0081380 	.word	0xc0081380

800103bc <gicd_clear_pending>:
800103bc:	e3a03001 	mov	r3, #1
800103c0:	e200c01f 	and	ip, r0, #31
800103c4:	e59f1014 	ldr	r1, [pc, #20]	; 800103e0 <gicd_clear_pending+0x24>
800103c8:	e59f2014 	ldr	r2, [pc, #20]	; 800103e4 <gicd_clear_pending+0x28>
800103cc:	e1a002a0 	lsr	r0, r0, #5
800103d0:	e1a03c13 	lsl	r3, r3, ip
800103d4:	e7813100 	str	r3, [r1, r0, lsl #2]
800103d8:	e7823100 	str	r3, [r2, r0, lsl #2]
800103dc:	e12fff1e 	bx	lr
800103e0:	c0081280 	.word	0xc0081280
800103e4:	c0081380 	.word	0xc0081380

800103e8 <gicc_get_interrupt_id>:
800103e8:	e59f3010 	ldr	r3, [pc, #16]	; 80010400 <gicc_get_interrupt_id+0x18>
800103ec:	e593200c 	ldr	r2, [r3, #12]
800103f0:	e1a00b02 	lsl	r0, r2, #22
800103f4:	e5832010 	str	r2, [r3, #16]
800103f8:	e1a00b20 	lsr	r0, r0, #22
800103fc:	e12fff1e 	bx	lr
80010400:	c0082000 	.word	0xc0082000

80010404 <gicc_ctrl_enable>:
80010404:	e3a0c0f0 	mov	ip, #240	; 0xf0
80010408:	e3a00001 	mov	r0, #1
8001040c:	e92d4010 	push	{r4, lr}
80010410:	e59f3040 	ldr	r3, [pc, #64]	; 80010458 <gicc_ctrl_enable+0x54>
80010414:	e59f2040 	ldr	r2, [pc, #64]	; 8001045c <gicc_ctrl_enable+0x58>
80010418:	e59f1040 	ldr	r1, [pc, #64]	; 80010460 <gicc_ctrl_enable+0x5c>
8001041c:	e59f4040 	ldr	r4, [pc, #64]	; 80010464 <gicc_ctrl_enable+0x60>
80010420:	e59fe040 	ldr	lr, [pc, #64]	; 80010468 <gicc_ctrl_enable+0x64>
80010424:	e5834180 	str	r4, [r3, #384]	; 0x180
80010428:	e583e100 	str	lr, [r3, #256]	; 0x100
8001042c:	e5832400 	str	r2, [r3, #1024]	; 0x400
80010430:	e5832404 	str	r2, [r3, #1028]	; 0x404
80010434:	e5832408 	str	r2, [r3, #1032]	; 0x408
80010438:	e583240c 	str	r2, [r3, #1036]	; 0x40c
8001043c:	e5832410 	str	r2, [r3, #1040]	; 0x410
80010440:	e5832414 	str	r2, [r3, #1044]	; 0x414
80010444:	e5832418 	str	r2, [r3, #1048]	; 0x418
80010448:	e583241c 	str	r2, [r3, #1052]	; 0x41c
8001044c:	e581c004 	str	ip, [r1, #4]
80010450:	e5810000 	str	r0, [r1]
80010454:	e8bd8010 	pop	{r4, pc}
80010458:	c0081000 	.word	0xc0081000
8001045c:	a0a0a0a0 	.word	0xa0a0a0a0
80010460:	c0082000 	.word	0xc0082000
80010464:	ffff0000 	.word	0xffff0000
80010468:	0000ffff 	.word	0x0000ffff

8001046c <timer2_init>:
8001046c:	e3a03c01 	mov	r3, #256	; 0x100
80010470:	e3a02041 	mov	r2, #65	; 0x41
80010474:	e92d4010 	push	{r4, lr}
80010478:	e59f402c 	ldr	r4, [pc, #44]	; 800104ac <timer2_init+0x40>
8001047c:	e3a00038 	mov	r0, #56	; 0x38
80010480:	e5843c34 	str	r3, [r4, #3124]	; 0xc34
80010484:	e5943c00 	ldr	r3, [r4, #3072]	; 0xc00
80010488:	e3833004 	orr	r3, r3, #4
8001048c:	e5843c00 	str	r3, [r4, #3072]	; 0xc00
80010490:	e5842c30 	str	r2, [r4, #3120]	; 0xc30
80010494:	ebffffb9 	bl	80010380 <gicd_set_enable>
80010498:	e3a03004 	mov	r3, #4
8001049c:	e3a00038 	mov	r0, #56	; 0x38
800104a0:	e5843c04 	str	r3, [r4, #3076]	; 0xc04
800104a4:	e8bd4010 	pop	{r4, lr}
800104a8:	eaffffc3 	b	800103bc <gicd_clear_pending>
800104ac:	c0020000 	.word	0xc0020000

800104b0 <timer2_clear_irq>:
800104b0:	e3a02004 	mov	r2, #4
800104b4:	e59f3008 	ldr	r3, [pc, #8]	; 800104c4 <timer2_clear_irq+0x14>
800104b8:	e3a00038 	mov	r0, #56	; 0x38
800104bc:	e5832c04 	str	r2, [r3, #3076]	; 0xc04
800104c0:	eaffffbd 	b	800103bc <gicd_clear_pending>
800104c4:	c0020000 	.word	0xc0020000

800104c8 <load_icode_mapper>:
800104c8:	e92d4ff0 	push	{r4, r5, r6, r7, r8, r9, sl, fp, lr}
800104cc:	e3a04000 	mov	r4, #0
800104d0:	e24dd01c 	sub	sp, sp, #28
800104d4:	e1a07a00 	lsl	r7, r0, #20
800104d8:	e2535000 	subs	r5, r3, #0
800104dc:	e58d0008 	str	r0, [sp, #8]
800104e0:	e58d1004 	str	r1, [sp, #4]
800104e4:	e1a07a27 	lsr	r7, r7, #20
800104e8:	e58d4014 	str	r4, [sp, #20]
800104ec:	e59d8040 	ldr	r8, [sp, #64]	; 0x40
800104f0:	0a000034 	beq	800105c8 <load_icode_mapper+0x100>
800104f4:	e2673a01 	rsb	r3, r7, #4096	; 0x1000
800104f8:	e1530005 	cmp	r3, r5
800104fc:	21a03005 	movcs	r3, r5
80010500:	e58d300c 	str	r3, [sp, #12]
80010504:	e0403007 	sub	r3, r0, r7
80010508:	e1a09002 	mov	r9, r2
8001050c:	e59fb20c 	ldr	fp, [pc, #524]	; 80010720 <load_icode_mapper+0x258>
80010510:	e59fa20c 	ldr	sl, [pc, #524]	; 80010724 <load_icode_mapper+0x25c>
80010514:	e28d6014 	add	r6, sp, #20
80010518:	e58d3000 	str	r3, [sp]
8001051c:	ea000023 	b	800105b0 <load_icode_mapper+0xe8>
80010520:	e59d2014 	ldr	r2, [sp, #20]
80010524:	e3540000 	cmp	r4, #0
80010528:	e1d230b8 	ldrh	r3, [r2, #8]
8001052c:	e2833001 	add	r3, r3, #1
80010530:	e1c230b8 	strh	r3, [r2, #8]
80010534:	0a00005d 	beq	800106b0 <load_icode_mapper+0x1e8>
80010538:	e59b1000 	ldr	r1, [fp]
8001053c:	e59a3000 	ldr	r3, [sl]
80010540:	e0421001 	sub	r1, r2, r1
80010544:	e1a01141 	asr	r1, r1, #2
80010548:	e0812101 	add	r2, r1, r1, lsl #2
8001054c:	e0822202 	add	r2, r2, r2, lsl #4
80010550:	e0822402 	add	r2, r2, r2, lsl #8
80010554:	e0822802 	add	r2, r2, r2, lsl #16
80010558:	e0811082 	add	r1, r1, r2, lsl #1
8001055c:	e1a01601 	lsl	r1, r1, #12
80010560:	e0440007 	sub	r0, r4, r7
80010564:	e1530621 	cmp	r3, r1, lsr #12
80010568:	e0890000 	add	r0, r9, r0
8001056c:	9a00004a 	bls	8001069c <load_icode_mapper+0x1d4>
80010570:	e0452004 	sub	r2, r5, r4
80010574:	e3520a01 	cmp	r2, #4096	; 0x1000
80010578:	e2811102 	add	r1, r1, #-2147483648	; 0x80000000
8001057c:	23a02a01 	movcs	r2, #4096	; 0x1000
80010580:	ebffff01 	bl	8001018c <bcopy>
80010584:	e59d2000 	ldr	r2, [sp]
80010588:	e59f3198 	ldr	r3, [pc, #408]	; 80010728 <load_icode_mapper+0x260>
8001058c:	e0822004 	add	r2, r2, r4
80010590:	e59d1014 	ldr	r1, [sp, #20]
80010594:	e5980058 	ldr	r0, [r8, #88]	; 0x58
80010598:	eb000a69 	bl	80012f44 <page_insert>
8001059c:	e3500000 	cmp	r0, #0
800105a0:	ba000006 	blt	800105c0 <load_icode_mapper+0xf8>
800105a4:	e2844a01 	add	r4, r4, #4096	; 0x1000
800105a8:	e1550004 	cmp	r5, r4
800105ac:	9a000006 	bls	800105cc <load_icode_mapper+0x104>
800105b0:	e1a00006 	mov	r0, r6
800105b4:	eb00097d 	bl	80012bb0 <page_alloc>
800105b8:	e3500000 	cmp	r0, #0
800105bc:	aaffffd7 	bge	80010520 <load_icode_mapper+0x58>
800105c0:	e28dd01c 	add	sp, sp, #28
800105c4:	e8bd8ff0 	pop	{r4, r5, r6, r7, r8, r9, sl, fp, pc}
800105c8:	e1a04005 	mov	r4, r5
800105cc:	e59d3004 	ldr	r3, [sp, #4]
800105d0:	e0444007 	sub	r4, r4, r7
800105d4:	e1530004 	cmp	r3, r4
800105d8:	9a00002c 	bls	80010690 <load_icode_mapper+0x1c8>
800105dc:	e28d6014 	add	r6, sp, #20
800105e0:	e59fb138 	ldr	fp, [pc, #312]	; 80010720 <load_icode_mapper+0x258>
800105e4:	e59fa138 	ldr	sl, [pc, #312]	; 80010724 <load_icode_mapper+0x25c>
800105e8:	e3a09a01 	mov	r9, #4096	; 0x1000
800105ec:	e3a07000 	mov	r7, #0
800105f0:	e59f5130 	ldr	r5, [pc, #304]	; 80010728 <load_icode_mapper+0x260>
800105f4:	ea00001f 	b	80010678 <load_icode_mapper+0x1b0>
800105f8:	e59d2014 	ldr	r2, [sp, #20]
800105fc:	e59b0000 	ldr	r0, [fp]
80010600:	e1d210b8 	ldrh	r1, [r2, #8]
80010604:	e0420000 	sub	r0, r2, r0
80010608:	e1a00140 	asr	r0, r0, #2
8001060c:	e0803100 	add	r3, r0, r0, lsl #2
80010610:	e0833203 	add	r3, r3, r3, lsl #4
80010614:	e0833403 	add	r3, r3, r3, lsl #8
80010618:	e0833803 	add	r3, r3, r3, lsl #16
8001061c:	e0800083 	add	r0, r0, r3, lsl #1
80010620:	e59a3000 	ldr	r3, [sl]
80010624:	e1a00600 	lsl	r0, r0, #12
80010628:	e2811001 	add	r1, r1, #1
8001062c:	e1530620 	cmp	r3, r0, lsr #12
80010630:	e1c210b8 	strh	r1, [r2, #8]
80010634:	9a00002f 	bls	800106f8 <load_icode_mapper+0x230>
80010638:	e1a02009 	mov	r2, r9
8001063c:	e1a01007 	mov	r1, r7
80010640:	e2800102 	add	r0, r0, #-2147483648	; 0x80000000
80010644:	ebfffeea 	bl	800101f4 <memset>
80010648:	e59d2008 	ldr	r2, [sp, #8]
8001064c:	e1a03005 	mov	r3, r5
80010650:	e0822004 	add	r2, r2, r4
80010654:	e59d1014 	ldr	r1, [sp, #20]
80010658:	e5980058 	ldr	r0, [r8, #88]	; 0x58
8001065c:	eb000a38 	bl	80012f44 <page_insert>
80010660:	e3500000 	cmp	r0, #0
80010664:	baffffd5 	blt	800105c0 <load_icode_mapper+0xf8>
80010668:	e59d3004 	ldr	r3, [sp, #4]
8001066c:	e2844a01 	add	r4, r4, #4096	; 0x1000
80010670:	e1530004 	cmp	r3, r4
80010674:	9a000005 	bls	80010690 <load_icode_mapper+0x1c8>
80010678:	e1a00006 	mov	r0, r6
8001067c:	eb00094b 	bl	80012bb0 <page_alloc>
80010680:	e3500000 	cmp	r0, #0
80010684:	aaffffdb 	bge	800105f8 <load_icode_mapper+0x130>
80010688:	e28dd01c 	add	sp, sp, #28
8001068c:	e8bd8ff0 	pop	{r4, r5, r6, r7, r8, r9, sl, fp, pc}
80010690:	e3a00000 	mov	r0, #0
80010694:	e28dd01c 	add	sp, sp, #28
80010698:	e8bd8ff0 	pop	{r4, r5, r6, r7, r8, r9, sl, fp, pc}
8001069c:	e2813101 	add	r3, r1, #1073741824	; 0x40000000
800106a0:	e59f2084 	ldr	r2, [pc, #132]	; 8001072c <load_icode_mapper+0x264>
800106a4:	e3a0103b 	mov	r1, #59	; 0x3b
800106a8:	e59f0080 	ldr	r0, [pc, #128]	; 80010730 <load_icode_mapper+0x268>
800106ac:	eb000629 	bl	80011f58 <_panic>
800106b0:	e59b3000 	ldr	r3, [fp]
800106b4:	e59a1000 	ldr	r1, [sl]
800106b8:	e0423003 	sub	r3, r2, r3
800106bc:	e1a03143 	asr	r3, r3, #2
800106c0:	e0832103 	add	r2, r3, r3, lsl #2
800106c4:	e0822202 	add	r2, r2, r2, lsl #4
800106c8:	e0822402 	add	r2, r2, r2, lsl #8
800106cc:	e0822802 	add	r2, r2, r2, lsl #16
800106d0:	e0833082 	add	r3, r3, r2, lsl #1
800106d4:	e1a03603 	lsl	r3, r3, #12
800106d8:	e1510623 	cmp	r1, r3, lsr #12
800106dc:	9a00000a 	bls	8001070c <load_icode_mapper+0x244>
800106e0:	e2831102 	add	r1, r3, #-2147483648	; 0x80000000
800106e4:	e0811007 	add	r1, r1, r7
800106e8:	e59d200c 	ldr	r2, [sp, #12]
800106ec:	e1a00009 	mov	r0, r9
800106f0:	ebfffea5 	bl	8001018c <bcopy>
800106f4:	eaffffa2 	b	80010584 <load_icode_mapper+0xbc>
800106f8:	e2803101 	add	r3, r0, #1073741824	; 0x40000000
800106fc:	e59f2028 	ldr	r2, [pc, #40]	; 8001072c <load_icode_mapper+0x264>
80010700:	e3a0103b 	mov	r1, #59	; 0x3b
80010704:	e59f0024 	ldr	r0, [pc, #36]	; 80010730 <load_icode_mapper+0x268>
80010708:	eb000612 	bl	80011f58 <_panic>
8001070c:	e2833101 	add	r3, r3, #1073741824	; 0x40000000
80010710:	e59f2014 	ldr	r2, [pc, #20]	; 8001072c <load_icode_mapper+0x264>
80010714:	e3a0103b 	mov	r1, #59	; 0x3b
80010718:	e59f0010 	ldr	r0, [pc, #16]	; 80010730 <load_icode_mapper+0x268>
8001071c:	eb00060d 	bl	80011f58 <_panic>
80010720:	80024000 	.word	0x80024000
80010724:	80024a6c 	.word	0x80024a6c
80010728:	0000043a 	.word	0x0000043a
8001072c:	800147f4 	.word	0x800147f4
80010730:	80014818 	.word	0x80014818

80010734 <mkenvid>:
80010734:	e59f2040 	ldr	r2, [pc, #64]	; 8001077c <mkenvid+0x48>
80010738:	e5923000 	ldr	r3, [r2]
8001073c:	e5921004 	ldr	r1, [r2, #4]
80010740:	e0400003 	sub	r0, r0, r3
80010744:	e1a00140 	asr	r0, r0, #2
80010748:	e0803200 	add	r3, r0, r0, lsl #4
8001074c:	e0633283 	rsb	r3, r3, r3, lsl #5
80010750:	e0803203 	add	r3, r0, r3, lsl #4
80010754:	e0603383 	rsb	r3, r0, r3, lsl #7
80010758:	e0633103 	rsb	r3, r3, r3, lsl #2
8001075c:	e0833183 	add	r3, r3, r3, lsl #3
80010760:	e0600203 	rsb	r0, r0, r3, lsl #4
80010764:	e2813001 	add	r3, r1, #1
80010768:	e20310ff 	and	r1, r3, #255	; 0xff
8001076c:	e0800100 	add	r0, r0, r0, lsl #2
80010770:	e5823004 	str	r3, [r2, #4]
80010774:	e1810400 	orr	r0, r1, r0, lsl #8
80010778:	e12fff1e 	bx	lr
8001077c:	80018004 	.word	0x80018004

80010780 <envid2env>:
80010780:	e3500000 	cmp	r0, #0
80010784:	159fc078 	ldrne	ip, [pc, #120]	; 80010804 <envid2env+0x84>
80010788:	e52de004 	push	{lr}		; (str lr, [sp, #-4]!)
8001078c:	159fe074 	ldrne	lr, [pc, #116]	; 80010808 <envid2env+0x88>
80010790:	100cc420 	andne	ip, ip, r0, lsr #8
80010794:	059fe06c 	ldreq	lr, [pc, #108]	; 80010808 <envid2env+0x88>
80010798:	108cc10c 	addne	ip, ip, ip, lsl #2
8001079c:	159e3000 	ldrne	r3, [lr]
800107a0:	106cc18c 	rsbne	ip, ip, ip, lsl #3
800107a4:	059e3008 	ldreq	r3, [lr, #8]
800107a8:	1083310c 	addne	r3, r3, ip, lsl #2
800107ac:	e593c054 	ldr	ip, [r3, #84]	; 0x54
800107b0:	e35c0000 	cmp	ip, #0
800107b4:	0a00000e 	beq	800107f4 <envid2env+0x74>
800107b8:	e593c04c 	ldr	ip, [r3, #76]	; 0x4c
800107bc:	e150000c 	cmp	r0, ip
800107c0:	1a00000b 	bne	800107f4 <envid2env+0x74>
800107c4:	e3520000 	cmp	r2, #0
800107c8:	0a000006 	beq	800107e8 <envid2env+0x68>
800107cc:	e59e2008 	ldr	r2, [lr, #8]
800107d0:	e1530002 	cmp	r3, r2
800107d4:	0a000003 	beq	800107e8 <envid2env+0x68>
800107d8:	e592204c 	ldr	r2, [r2, #76]	; 0x4c
800107dc:	e5930050 	ldr	r0, [r3, #80]	; 0x50
800107e0:	e1500002 	cmp	r0, r2
800107e4:	1a000002 	bne	800107f4 <envid2env+0x74>
800107e8:	e3a00000 	mov	r0, #0
800107ec:	e5813000 	str	r3, [r1]
800107f0:	e49df004 	pop	{pc}		; (ldr pc, [sp], #4)
800107f4:	e3a03000 	mov	r3, #0
800107f8:	e3e00001 	mvn	r0, #1
800107fc:	e5813000 	str	r3, [r1]
80010800:	e49df004 	pop	{pc}		; (ldr pc, [sp], #4)
80010804:	000003ff 	.word	0x000003ff
80010808:	80018004 	.word	0x80018004

8001080c <env_init>:
8001080c:	e3a02000 	mov	r2, #0
80010810:	e1a01002 	mov	r1, r2
80010814:	e59f304c 	ldr	r3, [pc, #76]	; 80010868 <env_init+0x5c>
80010818:	e92d4030 	push	{r4, r5, lr}
8001081c:	e5935000 	ldr	r5, [r3]
80010820:	e59fe044 	ldr	lr, [pc, #68]	; 8001086c <env_init+0x60>
80010824:	e2853b8b 	add	r3, r5, #142336	; 0x22c00
80010828:	e2833fdd 	add	r3, r3, #884	; 0x374
8001082c:	e245408c 	sub	r4, r5, #140	; 0x8c
80010830:	e1a00003 	mov	r0, r3
80010834:	e3520000 	cmp	r2, #0
80010838:	1283c044 	addne	ip, r3, #68	; 0x44
8001083c:	e5832044 	str	r2, [r3, #68]	; 0x44
80010840:	e583104c 	str	r1, [r3, #76]	; 0x4c
80010844:	e5831054 	str	r1, [r3, #84]	; 0x54
80010848:	1582c048 	strne	ip, [r2, #72]	; 0x48
8001084c:	e243308c 	sub	r3, r3, #140	; 0x8c
80010850:	e583e0d4 	str	lr, [r3, #212]	; 0xd4
80010854:	e1530004 	cmp	r3, r4
80010858:	e1a02000 	mov	r2, r0
8001085c:	1afffff3 	bne	80010830 <env_init+0x24>
80010860:	e58e5000 	str	r5, [lr]
80010864:	e8bd8030 	pop	{r4, r5, pc}
80010868:	80018004 	.word	0x80018004
8001086c:	80024a60 	.word	0x80024a60

80010870 <env_alloc>:
80010870:	e92d47f0 	push	{r4, r5, r6, r7, r8, r9, sl, lr}
80010874:	e59f31f4 	ldr	r3, [pc, #500]	; 80010a70 <env_alloc+0x200>
80010878:	e24dd008 	sub	sp, sp, #8
8001087c:	e5934000 	ldr	r4, [r3]
80010880:	e3540000 	cmp	r4, #0
80010884:	0a000069 	beq	80010a30 <env_alloc+0x1c0>
80010888:	e3a0a000 	mov	sl, #0
8001088c:	e1a07001 	mov	r7, r1
80010890:	e1a08000 	mov	r8, r0
80010894:	e1a01004 	mov	r1, r4
80010898:	e59f01d4 	ldr	r0, [pc, #468]	; 80010a74 <env_alloc+0x204>
8001089c:	eb00059e 	bl	80011f1c <printf>
800108a0:	e28d0008 	add	r0, sp, #8
800108a4:	e520a004 	str	sl, [r0, #-4]!
800108a8:	eb0008c0 	bl	80012bb0 <page_alloc>
800108ac:	e150000a 	cmp	r0, sl
800108b0:	ba00006a 	blt	80010a60 <env_alloc+0x1f0>
800108b4:	e59f31bc 	ldr	r3, [pc, #444]	; 80010a78 <env_alloc+0x208>
800108b8:	e59d2004 	ldr	r2, [sp, #4]
800108bc:	e5939000 	ldr	r9, [r3]
800108c0:	e59f01b4 	ldr	r0, [pc, #436]	; 80010a7c <env_alloc+0x20c>
800108c4:	e0429009 	sub	r9, r2, r9
800108c8:	e1a09149 	asr	r9, r9, #2
800108cc:	e0893109 	add	r3, r9, r9, lsl #2
800108d0:	e0833203 	add	r3, r3, r3, lsl #4
800108d4:	e0833403 	add	r3, r3, r3, lsl #8
800108d8:	e0833803 	add	r3, r3, r3, lsl #16
800108dc:	e0893083 	add	r3, r9, r3, lsl #1
800108e0:	e1a09603 	lsl	r9, r3, #12
800108e4:	e1d210b8 	ldrh	r1, [r2, #8]
800108e8:	e5903000 	ldr	r3, [r0]
800108ec:	e2811001 	add	r1, r1, #1
800108f0:	e1530629 	cmp	r3, r9, lsr #12
800108f4:	e1c210b8 	strh	r1, [r2, #8]
800108f8:	e2896101 	add	r6, r9, #1073741824	; 0x40000000
800108fc:	9a000052 	bls	80010a4c <env_alloc+0x1dc>
80010900:	e2895102 	add	r5, r9, #-2147483648	; 0x80000000
80010904:	e1a01005 	mov	r1, r5
80010908:	e59f0170 	ldr	r0, [pc, #368]	; 80010a80 <env_alloc+0x210>
8001090c:	eb000582 	bl	80011f1c <printf>
80010910:	e1a0100a 	mov	r1, sl
80010914:	e59f2168 	ldr	r2, [pc, #360]	; 80010a84 <env_alloc+0x214>
80010918:	e1a00005 	mov	r0, r5
8001091c:	e285ad7f 	add	sl, r5, #8128	; 0x1fc0
80010920:	ebfffe33 	bl	800101f4 <memset>
80010924:	e28aa034 	add	sl, sl, #52	; 0x34
80010928:	e1a01005 	mov	r1, r5
8001092c:	e59f2150 	ldr	r2, [pc, #336]	; 80010a84 <env_alloc+0x214>
80010930:	e59f0150 	ldr	r0, [pc, #336]	; 80010a88 <env_alloc+0x218>
80010934:	eb000578 	bl	80011f1c <printf>
80010938:	e1a0200a 	mov	r2, sl
8001093c:	e59f3148 	ldr	r3, [pc, #328]	; 80010a8c <env_alloc+0x21c>
80010940:	e59f1148 	ldr	r1, [pc, #328]	; 80010a90 <env_alloc+0x220>
80010944:	e59f0148 	ldr	r0, [pc, #328]	; 80010a94 <env_alloc+0x224>
80010948:	eb000573 	bl	80011f1c <printf>
8001094c:	e1a0100a 	mov	r1, sl
80010950:	e59f2134 	ldr	r2, [pc, #308]	; 80010a8c <env_alloc+0x21c>
80010954:	e59f0134 	ldr	r0, [pc, #308]	; 80010a90 <env_alloc+0x220>
80010958:	ebfffe0b 	bl	8001018c <bcopy>
8001095c:	e3550000 	cmp	r5, #0
80010960:	e5845058 	str	r5, [r4, #88]	; 0x58
80010964:	aa000033 	bge	80010a38 <env_alloc+0x1c8>
80010968:	e3a00002 	mov	r0, #2
8001096c:	e59f1124 	ldr	r1, [pc, #292]	; 80010a98 <env_alloc+0x228>
80010970:	e3750105 	cmn	r5, #1073741825	; 0x40000001
80010974:	e5913000 	ldr	r3, [r1]
80010978:	824965f9 	subhi	r6, r9, #1044381696	; 0x3e400000
8001097c:	e0443003 	sub	r3, r4, r3
80010980:	e1a03053 	asr	r3, r3, r0
80010984:	e0832203 	add	r2, r3, r3, lsl #4
80010988:	e0622282 	rsb	r2, r2, r2, lsl #5
8001098c:	e0832202 	add	r2, r3, r2, lsl #4
80010990:	e0632382 	rsb	r2, r3, r2, lsl #7
80010994:	e0622012 	rsb	r2, r2, r2, lsl r0
80010998:	e0822182 	add	r2, r2, r2, lsl #3
8001099c:	e0633202 	rsb	r3, r3, r2, lsl #4
800109a0:	e5912004 	ldr	r2, [r1, #4]
800109a4:	e0833013 	add	r3, r3, r3, lsl r0
800109a8:	e2822001 	add	r2, r2, #1
800109ac:	e202c0ff 	and	ip, r2, #255	; 0xff
800109b0:	e18c3403 	orr	r3, ip, r3, lsl #8
800109b4:	e386ce43 	orr	ip, r6, #1072	; 0x430
800109b8:	e38cc00a 	orr	ip, ip, #10
800109bc:	e5812004 	str	r2, [r1, #4]
800109c0:	e2852a02 	add	r2, r5, #8192	; 0x2000
800109c4:	e2855a01 	add	r5, r5, #4096	; 0x1000
800109c8:	e584605c 	str	r6, [r4, #92]	; 0x5c
800109cc:	e5826010 	str	r6, [r2, #16]
800109d0:	e585cffc 	str	ip, [r5, #4092]	; 0xffc
800109d4:	e584304c 	str	r3, [r4, #76]	; 0x4c
800109d8:	e5847050 	str	r7, [r4, #80]	; 0x50
800109dc:	e5840054 	str	r0, [r4, #84]	; 0x54
800109e0:	eb000242 	bl	800112f0 <get_cpsr>
800109e4:	e59f30b0 	ldr	r3, [pc, #176]	; 80010a9c <env_alloc+0x22c>
800109e8:	e5942044 	ldr	r2, [r4, #68]	; 0x44
800109ec:	e0033000 	and	r3, r3, r0
800109f0:	e3833010 	orr	r3, r3, #16
800109f4:	e3520000 	cmp	r2, #0
800109f8:	e5843008 	str	r3, [r4, #8]
800109fc:	e59f109c 	ldr	r1, [pc, #156]	; 80010aa0 <env_alloc+0x230>
80010a00:	15943048 	ldrne	r3, [r4, #72]	; 0x48
80010a04:	e5841000 	str	r1, [r4]
80010a08:	15823048 	strne	r3, [r2, #72]	; 0x48
80010a0c:	e5943048 	ldr	r3, [r4, #72]	; 0x48
80010a10:	e59f008c 	ldr	r0, [pc, #140]	; 80010aa4 <env_alloc+0x234>
80010a14:	e5832000 	str	r2, [r3]
80010a18:	e1a01004 	mov	r1, r4
80010a1c:	e5884000 	str	r4, [r8]
80010a20:	eb00053d 	bl	80011f1c <printf>
80010a24:	e3a00000 	mov	r0, #0
80010a28:	e28dd008 	add	sp, sp, #8
80010a2c:	e8bd87f0 	pop	{r4, r5, r6, r7, r8, r9, sl, pc}
80010a30:	e3e00004 	mvn	r0, #4
80010a34:	eafffffb 	b	80010a28 <env_alloc+0x1b8>
80010a38:	e1a03005 	mov	r3, r5
80010a3c:	e59f2064 	ldr	r2, [pc, #100]	; 80010aa8 <env_alloc+0x238>
80010a40:	e3a01093 	mov	r1, #147	; 0x93
80010a44:	e59f0060 	ldr	r0, [pc, #96]	; 80010aac <env_alloc+0x23c>
80010a48:	eb000542 	bl	80011f58 <_panic>
80010a4c:	e1a03006 	mov	r3, r6
80010a50:	e59f2058 	ldr	r2, [pc, #88]	; 80010ab0 <env_alloc+0x240>
80010a54:	e3a0103b 	mov	r1, #59	; 0x3b
80010a58:	e59f0054 	ldr	r0, [pc, #84]	; 80010ab4 <env_alloc+0x244>
80010a5c:	eb00053d 	bl	80011f58 <_panic>
80010a60:	e59f2050 	ldr	r2, [pc, #80]	; 80010ab8 <env_alloc+0x248>
80010a64:	e3a0107c 	mov	r1, #124	; 0x7c
80010a68:	e59f003c 	ldr	r0, [pc, #60]	; 80010aac <env_alloc+0x23c>
80010a6c:	eb000539 	bl	80011f58 <_panic>
80010a70:	80024a60 	.word	0x80024a60
80010a74:	8001482c 	.word	0x8001482c
80010a78:	80024000 	.word	0x80024000
80010a7c:	80024a6c 	.word	0x80024a6c
80010a80:	80014870 	.word	0x80014870
80010a84:	00001ff4 	.word	0x00001ff4
80010a88:	80014884 	.word	0x80014884
80010a8c:	0000200c 	.word	0x0000200c
80010a90:	80021ff4 	.word	0x80021ff4
80010a94:	8001488c 	.word	0x8001488c
80010a98:	80018004 	.word	0x80018004
80010a9c:	0000ffe0 	.word	0x0000ffe0
80010aa0:	7fcfe000 	.word	0x7fcfe000
80010aa4:	800148bc 	.word	0x800148bc
80010aa8:	80014898 	.word	0x80014898
80010aac:	80014868 	.word	0x80014868
80010ab0:	800147f4 	.word	0x800147f4
80010ab4:	80014818 	.word	0x80014818
80010ab8:	80014844 	.word	0x80014844

80010abc <env_create_priority>:
80010abc:	e92d40f0 	push	{r4, r5, r6, r7, lr}
80010ac0:	e24dd01c 	sub	sp, sp, #28
80010ac4:	e1a05000 	mov	r5, r0
80010ac8:	e1a06001 	mov	r6, r1
80010acc:	e28d000c 	add	r0, sp, #12
80010ad0:	e3a01000 	mov	r1, #0
80010ad4:	e1a07002 	mov	r7, r2
80010ad8:	ebffff64 	bl	80010870 <env_alloc>
80010adc:	e3500000 	cmp	r0, #0
80010ae0:	ba000022 	blt	80010b70 <env_create_priority+0xb4>
80010ae4:	e3a03000 	mov	r3, #0
80010ae8:	e59d400c 	ldr	r4, [sp, #12]
80010aec:	e28d0018 	add	r0, sp, #24
80010af0:	e5203008 	str	r3, [r0, #-8]!
80010af4:	e5847068 	str	r7, [r4, #104]	; 0x68
80010af8:	eb00082c 	bl	80012bb0 <page_alloc>
80010afc:	e59d1010 	ldr	r1, [sp, #16]
80010b00:	e5940058 	ldr	r0, [r4, #88]	; 0x58
80010b04:	e59f3074 	ldr	r3, [pc, #116]	; 80010b80 <env_create_priority+0xc4>
80010b08:	e59f2074 	ldr	r2, [pc, #116]	; 80010b84 <env_create_priority+0xc8>
80010b0c:	eb00090c 	bl	80012f44 <page_insert>
80010b10:	e59f2070 	ldr	r2, [pc, #112]	; 80010b88 <env_create_priority+0xcc>
80010b14:	e1a03004 	mov	r3, r4
80010b18:	e1a01006 	mov	r1, r6
80010b1c:	e58d2000 	str	r2, [sp]
80010b20:	e1a00005 	mov	r0, r5
80010b24:	e28d2014 	add	r2, sp, #20
80010b28:	eb000257 	bl	8001148c <load_elf>
80010b2c:	e59d1014 	ldr	r1, [sp, #20]
80010b30:	e59f0054 	ldr	r0, [pc, #84]	; 80010b8c <env_create_priority+0xd0>
80010b34:	eb0004f8 	bl	80011f1c <printf>
80010b38:	e3a02001 	mov	r2, #1
80010b3c:	e59f304c 	ldr	r3, [pc, #76]	; 80010b90 <env_create_priority+0xd4>
80010b40:	e5842054 	str	r2, [r4, #84]	; 0x54
80010b44:	e5932000 	ldr	r2, [r3]
80010b48:	e5834000 	str	r4, [r3]
80010b4c:	e3520000 	cmp	r2, #0
80010b50:	12841060 	addne	r1, r4, #96	; 0x60
80010b54:	e5842060 	str	r2, [r4, #96]	; 0x60
80010b58:	15821064 	strne	r1, [r2, #100]	; 0x64
80010b5c:	e59d2014 	ldr	r2, [sp, #20]
80010b60:	e5843064 	str	r3, [r4, #100]	; 0x64
80010b64:	e5842040 	str	r2, [r4, #64]	; 0x40
80010b68:	e28dd01c 	add	sp, sp, #28
80010b6c:	e8bd80f0 	pop	{r4, r5, r6, r7, pc}
80010b70:	e59f201c 	ldr	r2, [pc, #28]	; 80010b94 <env_create_priority+0xd8>
80010b74:	e59f101c 	ldr	r1, [pc, #28]	; 80010b98 <env_create_priority+0xdc>
80010b78:	e59f001c 	ldr	r0, [pc, #28]	; 80010b9c <env_create_priority+0xe0>
80010b7c:	eb0004f5 	bl	80011f58 <_panic>
80010b80:	0000043a 	.word	0x0000043a
80010b84:	7fcfd000 	.word	0x7fcfd000
80010b88:	800104c8 	.word	0x800104c8
80010b8c:	800148e0 	.word	0x800148e0
80010b90:	80024a68 	.word	0x80024a68
80010b94:	800148cc 	.word	0x800148cc
80010b98:	00000155 	.word	0x00000155
80010b9c:	80014868 	.word	0x80014868

80010ba0 <env_create>:
80010ba0:	e3a02001 	mov	r2, #1
80010ba4:	eaffffc4 	b	80010abc <env_create_priority>

80010ba8 <env_free>:
80010ba8:	e92d4ff0 	push	{r4, r5, r6, r7, r8, r9, sl, fp, lr}
80010bac:	e59f31a8 	ldr	r3, [pc, #424]	; 80010d5c <env_free+0x1b4>
80010bb0:	e590204c 	ldr	r2, [r0, #76]	; 0x4c
80010bb4:	e5933008 	ldr	r3, [r3, #8]
80010bb8:	e24dd00c 	sub	sp, sp, #12
80010bbc:	e3530000 	cmp	r3, #0
80010bc0:	e1a06000 	mov	r6, r0
80010bc4:	1593104c 	ldrne	r1, [r3, #76]	; 0x4c
80010bc8:	01a01003 	moveq	r1, r3
80010bcc:	e59f018c 	ldr	r0, [pc, #396]	; 80010d60 <env_free+0x1b8>
80010bd0:	e3a08000 	mov	r8, #0
80010bd4:	eb0004d0 	bl	80011f1c <printf>
80010bd8:	e59fb184 	ldr	fp, [pc, #388]	; 80010d64 <env_free+0x1bc>
80010bdc:	e5960058 	ldr	r0, [r6, #88]	; 0x58
80010be0:	e1a03108 	lsl	r3, r8, #2
80010be4:	e7907108 	ldr	r7, [r0, r8, lsl #2]
80010be8:	e58d3000 	str	r3, [sp]
80010bec:	e117000b 	tst	r7, fp
80010bf0:	0a000027 	beq	80010c94 <env_free+0xec>
80010bf4:	e3c73fff 	bic	r3, r7, #1020	; 0x3fc
80010bf8:	e3c33003 	bic	r3, r3, #3
80010bfc:	e2839103 	add	r9, r3, #-1073741824	; 0xc0000000
80010c00:	e58d3004 	str	r3, [sp, #4]
80010c04:	e59f315c 	ldr	r3, [pc, #348]	; 80010d68 <env_free+0x1c0>
80010c08:	e1a09629 	lsr	r9, r9, #12
80010c0c:	e5933000 	ldr	r3, [r3]
80010c10:	e1590003 	cmp	r9, r3
80010c14:	2a000042 	bcs	80010d24 <env_free+0x17c>
80010c18:	e59d3004 	ldr	r3, [sp, #4]
80010c1c:	e3a07000 	mov	r7, #0
80010c20:	e2832101 	add	r2, r3, #1073741824	; 0x40000000
80010c24:	e282afff 	add	sl, r2, #1020	; 0x3fc
80010c28:	e1a05a08 	lsl	r5, r8, #20
80010c2c:	e2434113 	sub	r4, r3, #-1073741820	; 0xc0000004
80010c30:	ea000002 	b	80010c40 <env_free+0x98>
80010c34:	e15a0004 	cmp	sl, r4
80010c38:	e2877001 	add	r7, r7, #1
80010c3c:	0a000008 	beq	80010c64 <env_free+0xbc>
80010c40:	e5b43004 	ldr	r3, [r4, #4]!
80010c44:	e113000b 	tst	r3, fp
80010c48:	0afffff9 	beq	80010c34 <env_free+0x8c>
80010c4c:	e1851607 	orr	r1, r5, r7, lsl #12
80010c50:	eb00092c 	bl	80013108 <page_remove>
80010c54:	e15a0004 	cmp	sl, r4
80010c58:	e5960058 	ldr	r0, [r6, #88]	; 0x58
80010c5c:	e2877001 	add	r7, r7, #1
80010c60:	1afffff6 	bne	80010c40 <env_free+0x98>
80010c64:	e3a02000 	mov	r2, #0
80010c68:	e59d3000 	ldr	r3, [sp]
80010c6c:	e7802003 	str	r2, [r0, r3]
80010c70:	e59f30f0 	ldr	r3, [pc, #240]	; 80010d68 <env_free+0x1c0>
80010c74:	e5933000 	ldr	r3, [r3]
80010c78:	e1590003 	cmp	r9, r3
80010c7c:	2a00002d 	bcs	80010d38 <env_free+0x190>
80010c80:	e59f30e4 	ldr	r3, [pc, #228]	; 80010d6c <env_free+0x1c4>
80010c84:	e0899089 	add	r9, r9, r9, lsl #1
80010c88:	e5930000 	ldr	r0, [r3]
80010c8c:	e0800109 	add	r0, r0, r9, lsl #2
80010c90:	eb0007fe 	bl	80012c90 <page_decref>
80010c94:	e59f30d4 	ldr	r3, [pc, #212]	; 80010d70 <env_free+0x1c8>
80010c98:	e2888001 	add	r8, r8, #1
80010c9c:	e1580003 	cmp	r8, r3
80010ca0:	1affffcd 	bne	80010bdc <env_free+0x34>
80010ca4:	e3a04000 	mov	r4, #0
80010ca8:	e596305c 	ldr	r3, [r6, #92]	; 0x5c
80010cac:	e59f20b4 	ldr	r2, [pc, #180]	; 80010d68 <env_free+0x1c0>
80010cb0:	e2830103 	add	r0, r3, #-1073741824	; 0xc0000000
80010cb4:	e5922000 	ldr	r2, [r2]
80010cb8:	e1a00620 	lsr	r0, r0, #12
80010cbc:	e1500002 	cmp	r0, r2
80010cc0:	e5864058 	str	r4, [r6, #88]	; 0x58
80010cc4:	e586405c 	str	r4, [r6, #92]	; 0x5c
80010cc8:	2a00001f 	bcs	80010d4c <env_free+0x1a4>
80010ccc:	e59f3098 	ldr	r3, [pc, #152]	; 80010d6c <env_free+0x1c4>
80010cd0:	e0800080 	add	r0, r0, r0, lsl #1
80010cd4:	e5933000 	ldr	r3, [r3]
80010cd8:	e0830100 	add	r0, r3, r0, lsl #2
80010cdc:	eb0007eb 	bl	80012c90 <page_decref>
80010ce0:	e59f208c 	ldr	r2, [pc, #140]	; 80010d74 <env_free+0x1cc>
80010ce4:	e5864054 	str	r4, [r6, #84]	; 0x54
80010ce8:	e5923000 	ldr	r3, [r2]
80010cec:	e5826000 	str	r6, [r2]
80010cf0:	e3530000 	cmp	r3, #0
80010cf4:	12861044 	addne	r1, r6, #68	; 0x44
80010cf8:	e5863044 	str	r3, [r6, #68]	; 0x44
80010cfc:	15831048 	strne	r1, [r3, #72]	; 0x48
80010d00:	e5963060 	ldr	r3, [r6, #96]	; 0x60
80010d04:	e5862048 	str	r2, [r6, #72]	; 0x48
80010d08:	e3530000 	cmp	r3, #0
80010d0c:	15962064 	ldrne	r2, [r6, #100]	; 0x64
80010d10:	15832064 	strne	r2, [r3, #100]	; 0x64
80010d14:	e5962064 	ldr	r2, [r6, #100]	; 0x64
80010d18:	e5823000 	str	r3, [r2]
80010d1c:	e28dd00c 	add	sp, sp, #12
80010d20:	e8bd8ff0 	pop	{r4, r5, r6, r7, r8, r9, sl, fp, pc}
80010d24:	e59d3004 	ldr	r3, [sp, #4]
80010d28:	e59f2048 	ldr	r2, [pc, #72]	; 80010d78 <env_free+0x1d0>
80010d2c:	e59f1048 	ldr	r1, [pc, #72]	; 80010d7c <env_free+0x1d4>
80010d30:	e59f0048 	ldr	r0, [pc, #72]	; 80010d80 <env_free+0x1d8>
80010d34:	eb000487 	bl	80011f58 <_panic>
80010d38:	e59d3004 	ldr	r3, [sp, #4]
80010d3c:	e59f2040 	ldr	r2, [pc, #64]	; 80010d84 <env_free+0x1dc>
80010d40:	e3a01030 	mov	r1, #48	; 0x30
80010d44:	e59f003c 	ldr	r0, [pc, #60]	; 80010d88 <env_free+0x1e0>
80010d48:	eb000482 	bl	80011f58 <_panic>
80010d4c:	e59f2030 	ldr	r2, [pc, #48]	; 80010d84 <env_free+0x1dc>
80010d50:	e3a01030 	mov	r1, #48	; 0x30
80010d54:	e59f002c 	ldr	r0, [pc, #44]	; 80010d88 <env_free+0x1e0>
80010d58:	eb00047e 	bl	80011f58 <_panic>
80010d5c:	80018004 	.word	0x80018004
80010d60:	800148f4 	.word	0x800148f4
80010d64:	0000042a 	.word	0x0000042a
80010d68:	80024a6c 	.word	0x80024a6c
80010d6c:	80024000 	.word	0x80024000
80010d70:	000007fd 	.word	0x000007fd
80010d74:	80024a60 	.word	0x80024a60
80010d78:	800147f4 	.word	0x800147f4
80010d7c:	00000183 	.word	0x00000183
80010d80:	80014868 	.word	0x80014868
80010d84:	8001490c 	.word	0x8001490c
80010d88:	80014818 	.word	0x80014818

80010d8c <env_destroy>:
80010d8c:	e92d4010 	push	{r4, lr}
80010d90:	e1a04000 	mov	r4, r0
80010d94:	ebffff83 	bl	80010ba8 <env_free>
80010d98:	e59f3030 	ldr	r3, [pc, #48]	; 80010dd0 <env_destroy+0x44>
80010d9c:	e5932008 	ldr	r2, [r3, #8]
80010da0:	e1540002 	cmp	r4, r2
80010da4:	18bd8010 	popne	{r4, pc}
80010da8:	e3a0c000 	mov	ip, #0
80010dac:	e3a02044 	mov	r2, #68	; 0x44
80010db0:	e59f101c 	ldr	r1, [pc, #28]	; 80010dd4 <env_destroy+0x48>
80010db4:	e59f001c 	ldr	r0, [pc, #28]	; 80010dd8 <env_destroy+0x4c>
80010db8:	e583c008 	str	ip, [r3, #8]
80010dbc:	ebfffcf2 	bl	8001018c <bcopy>
80010dc0:	e59f0014 	ldr	r0, [pc, #20]	; 80010ddc <env_destroy+0x50>
80010dc4:	eb000454 	bl	80011f1c <printf>
80010dc8:	e8bd4010 	pop	{r4, lr}
80010dcc:	ea000475 	b	80011fa8 <sched_yield>
80010dd0:	80018004 	.word	0x80018004
80010dd4:	8000ffac 	.word	0x8000ffac
80010dd8:	803fff00 	.word	0x803fff00
80010ddc:	80014930 	.word	0x80014930

80010de0 <lcontext>:
80010de0:	e3c130ff 	bic	r3, r1, #255	; 0xff
80010de4:	ee0d3f30 	mcr	15, 0, r3, cr13, cr0, {1}
80010de8:	ee020f10 	mcr	15, 0, r0, cr2, cr0, {0}
80010dec:	ee020f30 	mcr	15, 0, r0, cr2, cr0, {1}
80010df0:	ee0d1f30 	mcr	15, 0, r1, cr13, cr0, {1}
80010df4:	e12fff1e 	bx	lr

80010df8 <env_run>:
80010df8:	e92d4070 	push	{r4, r5, r6, lr}
80010dfc:	e59f5044 	ldr	r5, [pc, #68]	; 80010e48 <env_run+0x50>
80010e00:	e1a04000 	mov	r4, r0
80010e04:	e5951008 	ldr	r1, [r5, #8]
80010e08:	e3510000 	cmp	r1, #0
80010e0c:	0a000002 	beq	80010e1c <env_run+0x24>
80010e10:	e3a02044 	mov	r2, #68	; 0x44
80010e14:	e59f0030 	ldr	r0, [pc, #48]	; 80010e4c <env_run+0x54>
80010e18:	ebfffcdb 	bl	8001018c <bcopy>
80010e1c:	e594304c 	ldr	r3, [r4, #76]	; 0x4c
80010e20:	e5854008 	str	r4, [r5, #8]
80010e24:	e3c310ff 	bic	r1, r3, #255	; 0xff
80010e28:	e594205c 	ldr	r2, [r4, #92]	; 0x5c
80010e2c:	ee0d1f30 	mcr	15, 0, r1, cr13, cr0, {1}
80010e30:	ee022f10 	mcr	15, 0, r2, cr2, cr0, {0}
80010e34:	ee022f30 	mcr	15, 0, r2, cr2, cr0, {1}
80010e38:	ee0d3f30 	mcr	15, 0, r3, cr13, cr0, {1}
80010e3c:	e1a00004 	mov	r0, r4
80010e40:	e8bd4070 	pop	{r4, r5, r6, lr}
80010e44:	ea00011f 	b	800112c8 <env_pop_tf>
80010e48:	80018004 	.word	0x80018004
80010e4c:	8000ffac 	.word	0x8000ffac

80010e50 <env_check>:
80010e50:	e3a03000 	mov	r3, #0
80010e54:	e92d4030 	push	{r4, r5, lr}
80010e58:	e24dd014 	sub	sp, sp, #20
80010e5c:	e1a01003 	mov	r1, r3
80010e60:	e28d0004 	add	r0, sp, #4
80010e64:	e58d3004 	str	r3, [sp, #4]
80010e68:	e58d3008 	str	r3, [sp, #8]
80010e6c:	e58d300c 	str	r3, [sp, #12]
80010e70:	ebfffe7e 	bl	80010870 <env_alloc>
80010e74:	e2501000 	subs	r1, r0, #0
80010e78:	1a0000b2 	bne	80011148 <env_check+0x2f8>
80010e7c:	e28d0008 	add	r0, sp, #8
80010e80:	ebfffe7a 	bl	80010870 <env_alloc>
80010e84:	e2501000 	subs	r1, r0, #0
80010e88:	1a0000da 	bne	800111f8 <env_check+0x3a8>
80010e8c:	e28d000c 	add	r0, sp, #12
80010e90:	ebfffe76 	bl	80010870 <env_alloc>
80010e94:	e3500000 	cmp	r0, #0
80010e98:	1a0000d1 	bne	800111e4 <env_check+0x394>
80010e9c:	e59d2004 	ldr	r2, [sp, #4]
80010ea0:	e3520000 	cmp	r2, #0
80010ea4:	0a0000c9 	beq	800111d0 <env_check+0x380>
80010ea8:	e59d3008 	ldr	r3, [sp, #8]
80010eac:	e3530000 	cmp	r3, #0
80010eb0:	11520003 	cmpne	r2, r3
80010eb4:	0a000099 	beq	80011120 <env_check+0x2d0>
80010eb8:	e59d100c 	ldr	r1, [sp, #12]
80010ebc:	e3510000 	cmp	r1, #0
80010ec0:	11530001 	cmpne	r3, r1
80010ec4:	03a03001 	moveq	r3, #1
80010ec8:	13a03000 	movne	r3, #0
80010ecc:	e1520001 	cmp	r2, r1
80010ed0:	03833001 	orreq	r3, r3, #1
80010ed4:	e3530000 	cmp	r3, #0
80010ed8:	1a00008b 	bne	8001110c <env_check+0x2bc>
80010edc:	e59f433c 	ldr	r4, [pc, #828]	; 80011220 <env_check+0x3d0>
80010ee0:	e1a01003 	mov	r1, r3
80010ee4:	e1a0000d 	mov	r0, sp
80010ee8:	e5945000 	ldr	r5, [r4]
80010eec:	e5843000 	str	r3, [r4]
80010ef0:	ebfffe5e 	bl	80010870 <env_alloc>
80010ef4:	e3700005 	cmn	r0, #5
80010ef8:	1a0000af 	bne	800111bc <env_check+0x36c>
80010efc:	e59d3004 	ldr	r3, [sp, #4]
80010f00:	e59f031c 	ldr	r0, [pc, #796]	; 80011224 <env_check+0x3d4>
80010f04:	e593104c 	ldr	r1, [r3, #76]	; 0x4c
80010f08:	e5845000 	str	r5, [r4]
80010f0c:	eb000402 	bl	80011f1c <printf>
80010f10:	e59d3008 	ldr	r3, [sp, #8]
80010f14:	e59f030c 	ldr	r0, [pc, #780]	; 80011228 <env_check+0x3d8>
80010f18:	e593104c 	ldr	r1, [r3, #76]	; 0x4c
80010f1c:	eb0003fe 	bl	80011f1c <printf>
80010f20:	e59d300c 	ldr	r3, [sp, #12]
80010f24:	e59f0300 	ldr	r0, [pc, #768]	; 8001122c <env_check+0x3dc>
80010f28:	e593104c 	ldr	r1, [r3, #76]	; 0x4c
80010f2c:	eb0003fa 	bl	80011f1c <printf>
80010f30:	e59d3004 	ldr	r3, [sp, #4]
80010f34:	e593304c 	ldr	r3, [r3, #76]	; 0x4c
80010f38:	e3530001 	cmp	r3, #1
80010f3c:	1a000086 	bne	8001115c <env_check+0x30c>
80010f40:	e59d2008 	ldr	r2, [sp, #8]
80010f44:	e59f32e4 	ldr	r3, [pc, #740]	; 80011230 <env_check+0x3e0>
80010f48:	e592204c 	ldr	r2, [r2, #76]	; 0x4c
80010f4c:	e1520003 	cmp	r2, r3
80010f50:	1a0000ad 	bne	8001120c <env_check+0x3bc>
80010f54:	e59d200c 	ldr	r2, [sp, #12]
80010f58:	e59f32d4 	ldr	r3, [pc, #724]	; 80011234 <env_check+0x3e4>
80010f5c:	e592204c 	ldr	r2, [r2, #76]	; 0x4c
80010f60:	e1520003 	cmp	r2, r3
80010f64:	1a000081 	bne	80011170 <env_check+0x320>
80010f68:	e59f02c8 	ldr	r0, [pc, #712]	; 80011238 <env_check+0x3e8>
80010f6c:	eb0003ea 	bl	80011f1c <printf>
80010f70:	e3a03000 	mov	r3, #0
80010f74:	e59d100c 	ldr	r1, [sp, #12]
80010f78:	e591004c 	ldr	r0, [r1, #76]	; 0x4c
80010f7c:	e5813054 	str	r3, [r1, #84]	; 0x54
80010f80:	e1500003 	cmp	r0, r3
80010f84:	0a00001b 	beq	80010ff8 <env_check+0x1a8>
80010f88:	e1a03420 	lsr	r3, r0, #8
80010f8c:	e1a02b03 	lsl	r2, r3, #22
80010f90:	e59f42a4 	ldr	r4, [pc, #676]	; 8001123c <env_check+0x3ec>
80010f94:	e1a02b22 	lsr	r2, r2, #22
80010f98:	e0822102 	add	r2, r2, r2, lsl #2
80010f9c:	e594c000 	ldr	ip, [r4]
80010fa0:	e0622182 	rsb	r2, r2, r2, lsl #3
80010fa4:	e08cc102 	add	ip, ip, r2, lsl #2
80010fa8:	e59c2054 	ldr	r2, [ip, #84]	; 0x54
80010fac:	e3520000 	cmp	r2, #0
80010fb0:	0a000073 	beq	80011184 <env_check+0x334>
80010fb4:	e59c304c 	ldr	r3, [ip, #76]	; 0x4c
80010fb8:	e1500003 	cmp	r0, r3
80010fbc:	0a00004c 	beq	800110f4 <env_check+0x2a4>
80010fc0:	e3a02000 	mov	r2, #0
80010fc4:	e3a03001 	mov	r3, #1
80010fc8:	e1500002 	cmp	r0, r2
80010fcc:	e58d2000 	str	r2, [sp]
80010fd0:	e5813054 	str	r3, [r1, #84]	; 0x54
80010fd4:	0a00000f 	beq	80011018 <env_check+0x1c8>
80010fd8:	e1a03420 	lsr	r3, r0, #8
80010fdc:	e1a03b03 	lsl	r3, r3, #22
80010fe0:	e1a03b23 	lsr	r3, r3, #22
80010fe4:	e0833103 	add	r3, r3, r3, lsl #2
80010fe8:	e5942000 	ldr	r2, [r4]
80010fec:	e0633183 	rsb	r3, r3, r3, lsl #3
80010ff0:	e0823103 	add	r3, r2, r3, lsl #2
80010ff4:	ea000008 	b	8001101c <env_check+0x1cc>
80010ff8:	e59f423c 	ldr	r4, [pc, #572]	; 8001123c <env_check+0x3ec>
80010ffc:	e594c008 	ldr	ip, [r4, #8]
80011000:	e59c3054 	ldr	r3, [ip, #84]	; 0x54
80011004:	e3530000 	cmp	r3, #0
80011008:	03a03001 	moveq	r3, #1
8001100c:	058d0000 	streq	r0, [sp]
80011010:	05813054 	streq	r3, [r1, #84]	; 0x54
80011014:	1affffe6 	bne	80010fb4 <env_check+0x164>
80011018:	e5943008 	ldr	r3, [r4, #8]
8001101c:	e5932054 	ldr	r2, [r3, #84]	; 0x54
80011020:	e3520000 	cmp	r2, #0
80011024:	0a000002 	beq	80011034 <env_check+0x1e4>
80011028:	e593204c 	ldr	r2, [r3, #76]	; 0x4c
8001102c:	e1500002 	cmp	r0, r2
80011030:	0a000004 	beq	80011048 <env_check+0x1f8>
80011034:	e59f3204 	ldr	r3, [pc, #516]	; 80011240 <env_check+0x3f0>
80011038:	e59f2204 	ldr	r2, [pc, #516]	; 80011244 <env_check+0x3f4>
8001103c:	e3a01f83 	mov	r1, #524	; 0x20c
80011040:	e59f0200 	ldr	r0, [pc, #512]	; 80011248 <env_check+0x3f8>
80011044:	eb0003c3 	bl	80011f58 <_panic>
80011048:	e59dc004 	ldr	ip, [sp, #4]
8001104c:	e1a0100d 	mov	r1, sp
80011050:	e3a02001 	mov	r2, #1
80011054:	e58d3000 	str	r3, [sp]
80011058:	e5945008 	ldr	r5, [r4, #8]
8001105c:	e584c008 	str	ip, [r4, #8]
80011060:	ebfffdc6 	bl	80010780 <envid2env>
80011064:	e59d3000 	ldr	r3, [sp]
80011068:	e3700002 	cmn	r0, #2
8001106c:	03530000 	cmpeq	r3, #0
80011070:	1a00002f 	bne	80011134 <env_check+0x2e4>
80011074:	e59f01d0 	ldr	r0, [pc, #464]	; 8001124c <env_check+0x3fc>
80011078:	e5845008 	str	r5, [r4, #8]
8001107c:	eb0003a6 	bl	80011f1c <printf>
80011080:	e59d3008 	ldr	r3, [sp, #8]
80011084:	e59f01c4 	ldr	r0, [pc, #452]	; 80011250 <env_check+0x400>
80011088:	e5931058 	ldr	r1, [r3, #88]	; 0x58
8001108c:	eb0003a2 	bl	80011f1c <printf>
80011090:	e59d3008 	ldr	r3, [sp, #8]
80011094:	e59f01b8 	ldr	r0, [pc, #440]	; 80011254 <env_check+0x404>
80011098:	e593105c 	ldr	r1, [r3, #92]	; 0x5c
8001109c:	eb00039e 	bl	80011f1c <printf>
800110a0:	e59d300c 	ldr	r3, [sp, #12]
800110a4:	e59f21ac 	ldr	r2, [pc, #428]	; 80011258 <env_check+0x408>
800110a8:	e5933058 	ldr	r3, [r3, #88]	; 0x58
800110ac:	e5922ff4 	ldr	r2, [r2, #4084]	; 0xff4
800110b0:	e2833a01 	add	r3, r3, #4096	; 0x1000
800110b4:	e5931ff4 	ldr	r1, [r3, #4084]	; 0xff4
800110b8:	e1510002 	cmp	r1, r2
800110bc:	1a000034 	bne	80011194 <env_check+0x344>
800110c0:	e5933ff0 	ldr	r3, [r3, #4080]	; 0xff0
800110c4:	e3530000 	cmp	r3, #0
800110c8:	1a000036 	bne	800111a8 <env_check+0x358>
800110cc:	e59f0188 	ldr	r0, [pc, #392]	; 8001125c <env_check+0x40c>
800110d0:	eb000391 	bl	80011f1c <printf>
800110d4:	e59d300c 	ldr	r3, [sp, #12]
800110d8:	e59f0180 	ldr	r0, [pc, #384]	; 80011260 <env_check+0x410>
800110dc:	e5931000 	ldr	r1, [r3]
800110e0:	eb00038d 	bl	80011f1c <printf>
800110e4:	e59f0178 	ldr	r0, [pc, #376]	; 80011264 <env_check+0x414>
800110e8:	eb00038b 	bl	80011f1c <printf>
800110ec:	e28dd014 	add	sp, sp, #20
800110f0:	e8bd8030 	pop	{r4, r5, pc}
800110f4:	e59f316c 	ldr	r3, [pc, #364]	; 80011268 <env_check+0x418>
800110f8:	e59f2144 	ldr	r2, [pc, #324]	; 80011244 <env_check+0x3f4>
800110fc:	e59f1168 	ldr	r1, [pc, #360]	; 8001126c <env_check+0x41c>
80011100:	e59f0140 	ldr	r0, [pc, #320]	; 80011248 <env_check+0x3f8>
80011104:	e58dc000 	str	ip, [sp]
80011108:	eb000392 	bl	80011f58 <_panic>
8001110c:	e59f315c 	ldr	r3, [pc, #348]	; 80011270 <env_check+0x420>
80011110:	e59f212c 	ldr	r2, [pc, #300]	; 80011244 <env_check+0x3f4>
80011114:	e59f1158 	ldr	r1, [pc, #344]	; 80011274 <env_check+0x424>
80011118:	e59f0128 	ldr	r0, [pc, #296]	; 80011248 <env_check+0x3f8>
8001111c:	eb00038d 	bl	80011f58 <_panic>
80011120:	e59f3150 	ldr	r3, [pc, #336]	; 80011278 <env_check+0x428>
80011124:	e59f2118 	ldr	r2, [pc, #280]	; 80011244 <env_check+0x3f4>
80011128:	e3a01f7b 	mov	r1, #492	; 0x1ec
8001112c:	e59f0114 	ldr	r0, [pc, #276]	; 80011248 <env_check+0x3f8>
80011130:	eb000388 	bl	80011f58 <_panic>
80011134:	e59f312c 	ldr	r3, [pc, #300]	; 80011268 <env_check+0x418>
80011138:	e59f2104 	ldr	r2, [pc, #260]	; 80011244 <env_check+0x3f4>
8001113c:	e59f1138 	ldr	r1, [pc, #312]	; 8001127c <env_check+0x42c>
80011140:	e59f0100 	ldr	r0, [pc, #256]	; 80011248 <env_check+0x3f8>
80011144:	eb000383 	bl	80011f58 <_panic>
80011148:	e59f3130 	ldr	r3, [pc, #304]	; 80011280 <env_check+0x430>
8001114c:	e59f20f0 	ldr	r2, [pc, #240]	; 80011244 <env_check+0x3f4>
80011150:	e59f112c 	ldr	r1, [pc, #300]	; 80011284 <env_check+0x434>
80011154:	e59f00ec 	ldr	r0, [pc, #236]	; 80011248 <env_check+0x3f8>
80011158:	eb00037e 	bl	80011f58 <_panic>
8001115c:	e59f3124 	ldr	r3, [pc, #292]	; 80011288 <env_check+0x438>
80011160:	e59f20dc 	ldr	r2, [pc, #220]	; 80011244 <env_check+0x3f4>
80011164:	e59f1120 	ldr	r1, [pc, #288]	; 8001128c <env_check+0x43c>
80011168:	e59f00d8 	ldr	r0, [pc, #216]	; 80011248 <env_check+0x3f8>
8001116c:	eb000379 	bl	80011f58 <_panic>
80011170:	e59f3118 	ldr	r3, [pc, #280]	; 80011290 <env_check+0x440>
80011174:	e59f20c8 	ldr	r2, [pc, #200]	; 80011244 <env_check+0x3f4>
80011178:	e3a01c02 	mov	r1, #512	; 0x200
8001117c:	e59f00c4 	ldr	r0, [pc, #196]	; 80011248 <env_check+0x3f8>
80011180:	eb000374 	bl	80011f58 <_panic>
80011184:	e3a0c001 	mov	ip, #1
80011188:	e58d2000 	str	r2, [sp]
8001118c:	e581c054 	str	ip, [r1, #84]	; 0x54
80011190:	eaffff91 	b	80010fdc <env_check+0x18c>
80011194:	e59f30f8 	ldr	r3, [pc, #248]	; 80011294 <env_check+0x444>
80011198:	e59f20a4 	ldr	r2, [pc, #164]	; 80011244 <env_check+0x3f4>
8001119c:	e59f10f4 	ldr	r1, [pc, #244]	; 80011298 <env_check+0x448>
800111a0:	e59f00a0 	ldr	r0, [pc, #160]	; 80011248 <env_check+0x3f8>
800111a4:	eb00036b 	bl	80011f58 <_panic>
800111a8:	e59f30ec 	ldr	r3, [pc, #236]	; 8001129c <env_check+0x44c>
800111ac:	e59f2090 	ldr	r2, [pc, #144]	; 80011244 <env_check+0x3f4>
800111b0:	e59f10e8 	ldr	r1, [pc, #232]	; 800112a0 <env_check+0x450>
800111b4:	e59f008c 	ldr	r0, [pc, #140]	; 80011248 <env_check+0x3f8>
800111b8:	eb000366 	bl	80011f58 <_panic>
800111bc:	e59f30e0 	ldr	r3, [pc, #224]	; 800112a4 <env_check+0x454>
800111c0:	e59f207c 	ldr	r2, [pc, #124]	; 80011244 <env_check+0x3f4>
800111c4:	e59f10dc 	ldr	r1, [pc, #220]	; 800112a8 <env_check+0x458>
800111c8:	e59f0078 	ldr	r0, [pc, #120]	; 80011248 <env_check+0x3f8>
800111cc:	eb000361 	bl	80011f58 <_panic>
800111d0:	e59f30d4 	ldr	r3, [pc, #212]	; 800112ac <env_check+0x45c>
800111d4:	e59f2068 	ldr	r2, [pc, #104]	; 80011244 <env_check+0x3f4>
800111d8:	e59f10d0 	ldr	r1, [pc, #208]	; 800112b0 <env_check+0x460>
800111dc:	e59f0064 	ldr	r0, [pc, #100]	; 80011248 <env_check+0x3f8>
800111e0:	eb00035c 	bl	80011f58 <_panic>
800111e4:	e59f30c8 	ldr	r3, [pc, #200]	; 800112b4 <env_check+0x464>
800111e8:	e59f2054 	ldr	r2, [pc, #84]	; 80011244 <env_check+0x3f4>
800111ec:	e59f10c4 	ldr	r1, [pc, #196]	; 800112b8 <env_check+0x468>
800111f0:	e59f0050 	ldr	r0, [pc, #80]	; 80011248 <env_check+0x3f8>
800111f4:	eb000357 	bl	80011f58 <_panic>
800111f8:	e59f30bc 	ldr	r3, [pc, #188]	; 800112bc <env_check+0x46c>
800111fc:	e59f2040 	ldr	r2, [pc, #64]	; 80011244 <env_check+0x3f4>
80011200:	e3a01f7a 	mov	r1, #488	; 0x1e8
80011204:	e59f003c 	ldr	r0, [pc, #60]	; 80011248 <env_check+0x3f8>
80011208:	eb000352 	bl	80011f58 <_panic>
8001120c:	e59f30ac 	ldr	r3, [pc, #172]	; 800112c0 <env_check+0x470>
80011210:	e59f202c 	ldr	r2, [pc, #44]	; 80011244 <env_check+0x3f4>
80011214:	e59f10a8 	ldr	r1, [pc, #168]	; 800112c4 <env_check+0x474>
80011218:	e59f0028 	ldr	r0, [pc, #40]	; 80011248 <env_check+0x3f8>
8001121c:	eb00034d 	bl	80011f58 <_panic>
80011220:	80024a60 	.word	0x80024a60
80011224:	800149fc 	.word	0x800149fc
80011228:	80014a0c 	.word	0x80014a0c
8001122c:	80014a1c 	.word	0x80014a1c
80011230:	00000102 	.word	0x00000102
80011234:	00000203 	.word	0x00000203
80011238:	80014a68 	.word	0x80014a68
8001123c:	80018004 	.word	0x80018004
80011240:	80014a9c 	.word	0x80014a9c
80011244:	8001495c 	.word	0x8001495c
80011248:	80014868 	.word	0x80014868
8001124c:	80014ac0 	.word	0x80014ac0
80011250:	80014ad8 	.word	0x80014ad8
80011254:	80014aec 	.word	0x80014aec
80011258:	80021000 	.word	0x80021000
8001125c:	80014b58 	.word	0x80014b58
80011260:	80014b70 	.word	0x80014b70
80011264:	80014b88 	.word	0x80014b88
80011268:	80014a80 	.word	0x80014a80
8001126c:	00000207 	.word	0x00000207
80011270:	800149b8 	.word	0x800149b8
80011274:	000001ed 	.word	0x000001ed
80011278:	800149a4 	.word	0x800149a4
8001127c:	00000211 	.word	0x00000211
80011280:	80014944 	.word	0x80014944
80011284:	000001e7 	.word	0x000001e7
80011288:	80014a2c 	.word	0x80014a2c
8001128c:	000001fe 	.word	0x000001fe
80011290:	80014a54 	.word	0x80014a54
80011294:	80014b00 	.word	0x80014b00
80011298:	00000219 	.word	0x00000219
8001129c:	80014b34 	.word	0x80014b34
800112a0:	0000021a 	.word	0x0000021a
800112a4:	800149d8 	.word	0x800149d8
800112a8:	000001f5 	.word	0x000001f5
800112ac:	800149d4 	.word	0x800149d4
800112b0:	000001eb 	.word	0x000001eb
800112b4:	8001498c 	.word	0x8001498c
800112b8:	000001e9 	.word	0x000001e9
800112bc:	80014974 	.word	0x80014974
800112c0:	80014a40 	.word	0x80014a40
800112c4:	000001ff 	.word	0x000001ff

800112c8 <env_pop_tf>:
800112c8:	e8b00070 	ldm	r0!, {r4, r5, r6}
800112cc:	e161f006 	msr	SPSR_c, r6
800112d0:	e10f7000 	mrs	r7, CPSR
800112d4:	e3c7801f 	bic	r8, r7, #31
800112d8:	e388801f 	orr	r8, r8, #31
800112dc:	e121f008 	msr	CPSR_c, r8
800112e0:	e1a0d004 	mov	sp, r4
800112e4:	e1a0e005 	mov	lr, r5
800112e8:	e121f007 	msr	CPSR_c, r7
800112ec:	e8d09fff 	ldm	r0, {r0, r1, r2, r3, r4, r5, r6, r7, r8, r9, sl, fp, ip, pc}^

800112f0 <get_cpsr>:
800112f0:	e10f0000 	mrs	r0, CPSR
800112f4:	e12fff1e 	bx	lr

800112f8 <get_spsr>:
800112f8:	e14f0000 	mrs	r0, SPSR
800112fc:	e12fff1e 	bx	lr

80011300 <save_trapframe>:
80011300:	e1a01000 	mov	r1, r0
80011304:	e3a02044 	mov	r2, #68	; 0x44
80011308:	e59f0000 	ldr	r0, [pc]	; 80011310 <save_trapframe+0x10>
8001130c:	eafffb9e 	b	8001018c <bcopy>
80011310:	8000ffac 	.word	0x8000ffac

80011314 <print_tf>:
80011314:	e92d41f0 	push	{r4, r5, r6, r7, r8, lr}
80011318:	e1a07000 	mov	r7, r0
8001131c:	e1a05000 	mov	r5, r0
80011320:	e5901000 	ldr	r1, [r0]
80011324:	e59f004c 	ldr	r0, [pc, #76]	; 80011378 <print_tf+0x64>
80011328:	eb0002fb 	bl	80011f1c <printf>
8001132c:	e5971004 	ldr	r1, [r7, #4]
80011330:	e59f0044 	ldr	r0, [pc, #68]	; 8001137c <print_tf+0x68>
80011334:	eb0002f8 	bl	80011f1c <printf>
80011338:	e5b51008 	ldr	r1, [r5, #8]!
8001133c:	e59f003c 	ldr	r0, [pc, #60]	; 80011380 <print_tf+0x6c>
80011340:	eb0002f5 	bl	80011f1c <printf>
80011344:	e3a04000 	mov	r4, #0
80011348:	e59f6034 	ldr	r6, [pc, #52]	; 80011384 <print_tf+0x70>
8001134c:	e1a01004 	mov	r1, r4
80011350:	e5b52004 	ldr	r2, [r5, #4]!
80011354:	e1a00006 	mov	r0, r6
80011358:	e2844001 	add	r4, r4, #1
8001135c:	eb0002ee 	bl	80011f1c <printf>
80011360:	e354000d 	cmp	r4, #13
80011364:	1afffff8 	bne	8001134c <print_tf+0x38>
80011368:	e5971040 	ldr	r1, [r7, #64]	; 0x40
8001136c:	e59f0014 	ldr	r0, [pc, #20]	; 80011388 <print_tf+0x74>
80011370:	e8bd41f0 	pop	{r4, r5, r6, r7, r8, lr}
80011374:	ea0002e8 	b	80011f1c <printf>
80011378:	80014ba0 	.word	0x80014ba0
8001137c:	80014bb0 	.word	0x80014bb0
80011380:	80014bc0 	.word	0x80014bc0
80011384:	80014bd4 	.word	0x80014bd4
80011388:	80014be4 	.word	0x80014be4

8001138c <irq_handler>:
8001138c:	e92d4010 	push	{r4, lr}
80011390:	ebfffc14 	bl	800103e8 <gicc_get_interrupt_id>
80011394:	e1a01000 	mov	r1, r0
80011398:	e1a04000 	mov	r4, r0
8001139c:	e59f0054 	ldr	r0, [pc, #84]	; 800113f8 <irq_handler+0x6c>
800113a0:	eb0002dd 	bl	80011f1c <printf>
800113a4:	e14f3000 	mrs	r3, SPSR
800113a8:	e203301f 	and	r3, r3, #31
800113ac:	e3530013 	cmp	r3, #19
800113b0:	0a000004 	beq	800113c8 <irq_handler+0x3c>
800113b4:	e3540038 	cmp	r4, #56	; 0x38
800113b8:	18bd8010 	popne	{r4, pc}
800113bc:	ebfffc3b 	bl	800104b0 <timer2_clear_irq>
800113c0:	e8bd4010 	pop	{r4, lr}
800113c4:	ea0002f7 	b	80011fa8 <sched_yield>
800113c8:	e59f002c 	ldr	r0, [pc, #44]	; 800113fc <irq_handler+0x70>
800113cc:	eb0002d2 	bl	80011f1c <printf>
800113d0:	e3a02044 	mov	r2, #68	; 0x44
800113d4:	e59f1024 	ldr	r1, [pc, #36]	; 80011400 <irq_handler+0x74>
800113d8:	e59f0024 	ldr	r0, [pc, #36]	; 80011404 <irq_handler+0x78>
800113dc:	ebfffb6a 	bl	8001018c <bcopy>
800113e0:	e59f1018 	ldr	r1, [pc, #24]	; 80011400 <irq_handler+0x74>
800113e4:	e59f001c 	ldr	r0, [pc, #28]	; 80011408 <irq_handler+0x7c>
800113e8:	eb0002cb 	bl	80011f1c <printf>
800113ec:	e3540038 	cmp	r4, #56	; 0x38
800113f0:	18bd8010 	popne	{r4, pc}
800113f4:	eafffff0 	b	800113bc <irq_handler+0x30>
800113f8:	80014c00 	.word	0x80014c00
800113fc:	80014c20 	.word	0x80014c20
80011400:	803fff00 	.word	0x803fff00
80011404:	8000ffac 	.word	0x8000ffac
80011408:	80014c3c 	.word	0x80014c3c

8001140c <irq_entry>:
8001140c:	e24ee004 	sub	lr, lr, #4
80011410:	e59fd054 	ldr	sp, [pc, #84]	; 8001146c <irq_return+0x28>
80011414:	e92d5fff 	push	{r0, r1, r2, r3, r4, r5, r6, r7, r8, r9, sl, fp, ip, lr}
80011418:	e10f7000 	mrs	r7, CPSR
8001141c:	e3c7801f 	bic	r8, r7, #31
80011420:	e388801f 	orr	r8, r8, #31
80011424:	e121f008 	msr	CPSR_c, r8
80011428:	e1a0400d 	mov	r4, sp
8001142c:	e1a0500e 	mov	r5, lr
80011430:	e121f007 	msr	CPSR_c, r7
80011434:	e14f6000 	mrs	r6, SPSR
80011438:	e92d0070 	push	{r4, r5, r6}
8001143c:	ebffffd2 	bl	8001138c <irq_handler>
80011440:	eaffffff 	b	80011444 <irq_return>

80011444 <irq_return>:
80011444:	e8bd0070 	pop	{r4, r5, r6}
80011448:	e161f006 	msr	SPSR_c, r6
8001144c:	e10f7000 	mrs	r7, CPSR
80011450:	e3c7801f 	bic	r8, r7, #31
80011454:	e388801f 	orr	r8, r8, #31
80011458:	e121f008 	msr	CPSR_c, r8
8001145c:	e1a0d004 	mov	sp, r4
80011460:	e1a0e005 	mov	lr, r5
80011464:	e121f007 	msr	CPSR_c, r7
80011468:	e8dd9fff 	ldm	sp, {r0, r1, r2, r3, r4, r5, r6, r7, r8, r9, sl, fp, ip, pc}^
8001146c:	8000fff0 	.word	0x8000fff0

80011470 <is_elf_format>:
80011470:	e5900000 	ldr	r0, [r0]
80011474:	e59f300c 	ldr	r3, [pc, #12]	; 80011488 <is_elf_format+0x18>
80011478:	e0400003 	sub	r0, r0, r3
8001147c:	e16f0f10 	clz	r0, r0
80011480:	e1a002a0 	lsr	r0, r0, #5
80011484:	e12fff1e 	bx	lr
80011488:	464c457f 	.word	0x464c457f

8001148c <load_elf>:
8001148c:	e92d4ff0 	push	{r4, r5, r6, r7, r8, r9, sl, fp, lr}
80011490:	e3510003 	cmp	r1, #3
80011494:	e24dd00c 	sub	sp, sp, #12
80011498:	e59db030 	ldr	fp, [sp, #48]	; 0x30
8001149c:	da000003 	ble	800114b0 <load_elf+0x24>
800114a0:	e59f10ac 	ldr	r1, [pc, #172]	; 80011554 <load_elf+0xc8>
800114a4:	e590c000 	ldr	ip, [r0]
800114a8:	e15c0001 	cmp	ip, r1
800114ac:	0a000002 	beq	800114bc <load_elf+0x30>
800114b0:	e3e00000 	mvn	r0, #0
800114b4:	e28dd00c 	add	sp, sp, #12
800114b8:	e8bd8ff0 	pop	{r4, r5, r6, r7, r8, r9, sl, fp, pc}
800114bc:	e1a09003 	mov	r9, r3
800114c0:	e1d032bc 	ldrh	r3, [r0, #44]	; 0x2c
800114c4:	e590501c 	ldr	r5, [r0, #28]
800114c8:	e2434001 	sub	r4, r3, #1
800114cc:	e3530000 	cmp	r3, #0
800114d0:	e1a04804 	lsl	r4, r4, #16
800114d4:	e1a0a002 	mov	sl, r2
800114d8:	e1a08000 	mov	r8, r0
800114dc:	e1a04824 	lsr	r4, r4, #16
800114e0:	e0805005 	add	r5, r0, r5
800114e4:	e1d062ba 	ldrh	r6, [r0, #42]	; 0x2a
800114e8:	159f7068 	ldrne	r7, [pc, #104]	; 80011558 <load_elf+0xcc>
800114ec:	1a000006 	bne	8001150c <load_elf+0x80>
800114f0:	ea000012 	b	80011540 <load_elf+0xb4>
800114f4:	e2444001 	sub	r4, r4, #1
800114f8:	e1a04804 	lsl	r4, r4, #16
800114fc:	e1a04824 	lsr	r4, r4, #16
80011500:	e1540007 	cmp	r4, r7
80011504:	e0855006 	add	r5, r5, r6
80011508:	0a00000c 	beq	80011540 <load_elf+0xb4>
8001150c:	e5953000 	ldr	r3, [r5]
80011510:	e3530001 	cmp	r3, #1
80011514:	1afffff6 	bne	800114f4 <load_elf+0x68>
80011518:	e5952004 	ldr	r2, [r5, #4]
8001151c:	e5953010 	ldr	r3, [r5, #16]
80011520:	e5951014 	ldr	r1, [r5, #20]
80011524:	e5950008 	ldr	r0, [r5, #8]
80011528:	e0882002 	add	r2, r8, r2
8001152c:	e58d9000 	str	r9, [sp]
80011530:	e12fff3b 	blx	fp
80011534:	e3500000 	cmp	r0, #0
80011538:	aaffffed 	bge	800114f4 <load_elf+0x68>
8001153c:	eaffffdc 	b	800114b4 <load_elf+0x28>
80011540:	e3a00000 	mov	r0, #0
80011544:	e5983018 	ldr	r3, [r8, #24]
80011548:	e58a3000 	str	r3, [sl]
8001154c:	e28dd00c 	add	sp, sp, #12
80011550:	e8bd8ff0 	pop	{r4, r5, r6, r7, r8, r9, sl, fp, pc}
80011554:	464c457f 	.word	0x464c457f
80011558:	0000ffff 	.word	0x0000ffff

8001155c <PrintChar>:
8001155c:	e3520000 	cmp	r2, #0
80011560:	da000018 	ble	800115c8 <PrintChar+0x6c>
80011564:	e3530000 	cmp	r3, #0
80011568:	0a00000a 	beq	80011598 <PrintChar+0x3c>
8001156c:	e3520001 	cmp	r2, #1
80011570:	e5c01000 	strb	r1, [r0]
80011574:	0a000005 	beq	80011590 <PrintChar+0x34>
80011578:	e3a01020 	mov	r1, #32
8001157c:	e2803001 	add	r3, r0, #1
80011580:	e0800002 	add	r0, r0, r2
80011584:	e4c31001 	strb	r1, [r3], #1
80011588:	e1530000 	cmp	r3, r0
8001158c:	1afffffc 	bne	80011584 <PrintChar+0x28>
80011590:	e1a00002 	mov	r0, r2
80011594:	e12fff1e 	bx	lr
80011598:	e2523001 	subs	r3, r2, #1
8001159c:	0a00000c 	beq	800115d4 <PrintChar+0x78>
800115a0:	e92d4010 	push	{r4, lr}
800115a4:	e1a0c000 	mov	ip, r0
800115a8:	e3a04020 	mov	r4, #32
800115ac:	e080e003 	add	lr, r0, r3
800115b0:	e4cc4001 	strb	r4, [ip], #1
800115b4:	e15e000c 	cmp	lr, ip
800115b8:	1afffffc 	bne	800115b0 <PrintChar+0x54>
800115bc:	e7c01003 	strb	r1, [r0, r3]
800115c0:	e1a00002 	mov	r0, r2
800115c4:	e8bd8010 	pop	{r4, pc}
800115c8:	e3530000 	cmp	r3, #0
800115cc:	1a000003 	bne	800115e0 <PrintChar+0x84>
800115d0:	e3a02001 	mov	r2, #1
800115d4:	e7c01003 	strb	r1, [r0, r3]
800115d8:	e1a00002 	mov	r0, r2
800115dc:	e12fff1e 	bx	lr
800115e0:	e5c01000 	strb	r1, [r0]
800115e4:	e3a02001 	mov	r2, #1
800115e8:	eaffffe8 	b	80011590 <PrintChar+0x34>

800115ec <PrintString>:
800115ec:	e92d4030 	push	{r4, r5, lr}
800115f0:	e5d1e000 	ldrb	lr, [r1]
800115f4:	e1a05000 	mov	r5, r0
800115f8:	e35e0000 	cmp	lr, #0
800115fc:	0a000030 	beq	800116c4 <PrintString+0xd8>
80011600:	e281c001 	add	ip, r1, #1
80011604:	e04c4001 	sub	r4, ip, r1
80011608:	e4dce001 	ldrb	lr, [ip], #1
8001160c:	e35e0000 	cmp	lr, #0
80011610:	1afffffb 	bne	80011604 <PrintString+0x18>
80011614:	e1520004 	cmp	r2, r4
80011618:	a1a00002 	movge	r0, r2
8001161c:	b1a00004 	movlt	r0, r4
80011620:	e3530000 	cmp	r3, #0
80011624:	0a000011 	beq	80011670 <PrintString+0x84>
80011628:	e3540000 	cmp	r4, #0
8001162c:	da000006 	ble	8001164c <PrintString+0x60>
80011630:	e1a03001 	mov	r3, r1
80011634:	e245c001 	sub	ip, r5, #1
80011638:	e0811004 	add	r1, r1, r4
8001163c:	e4d32001 	ldrb	r2, [r3], #1
80011640:	e1510003 	cmp	r1, r3
80011644:	e5ec2001 	strb	r2, [ip, #1]!
80011648:	1afffffb 	bne	8001163c <PrintString+0x50>
8001164c:	e1540000 	cmp	r4, r0
80011650:	a8bd8030 	popge	{r4, r5, pc}
80011654:	e3a03020 	mov	r3, #32
80011658:	e085e004 	add	lr, r5, r4
8001165c:	e0855000 	add	r5, r5, r0
80011660:	e4ce3001 	strb	r3, [lr], #1
80011664:	e155000e 	cmp	r5, lr
80011668:	1afffffc 	bne	80011660 <PrintString+0x74>
8001166c:	e8bd8030 	pop	{r4, r5, pc}
80011670:	e0403004 	sub	r3, r0, r4
80011674:	e3530000 	cmp	r3, #0
80011678:	da000005 	ble	80011694 <PrintString+0xa8>
8001167c:	e1a0c005 	mov	ip, r5
80011680:	e3a0e020 	mov	lr, #32
80011684:	e0852003 	add	r2, r5, r3
80011688:	e4cce001 	strb	lr, [ip], #1
8001168c:	e15c0002 	cmp	ip, r2
80011690:	1afffffc 	bne	80011688 <PrintString+0x9c>
80011694:	e1500003 	cmp	r0, r3
80011698:	da000013 	ble	800116ec <PrintString+0x100>
8001169c:	e043e000 	sub	lr, r3, r0
800116a0:	e08ee004 	add	lr, lr, r4
800116a4:	e0853003 	add	r3, r5, r3
800116a8:	e081100e 	add	r1, r1, lr
800116ac:	e0855000 	add	r5, r5, r0
800116b0:	e4d12001 	ldrb	r2, [r1], #1
800116b4:	e4c32001 	strb	r2, [r3], #1
800116b8:	e1530005 	cmp	r3, r5
800116bc:	1afffffb 	bne	800116b0 <PrintString+0xc4>
800116c0:	e8bd8030 	pop	{r4, r5, pc}
800116c4:	e3530000 	cmp	r3, #0
800116c8:	e1c20fc2 	bic	r0, r2, r2, asr #31
800116cc:	1a000004 	bne	800116e4 <PrintString+0xf8>
800116d0:	e3500000 	cmp	r0, #0
800116d4:	11a04003 	movne	r4, r3
800116d8:	11a03000 	movne	r3, r0
800116dc:	1affffe6 	bne	8001167c <PrintString+0x90>
800116e0:	e8bd8030 	pop	{r4, r5, pc}
800116e4:	e1a0400e 	mov	r4, lr
800116e8:	eaffffd7 	b	8001164c <PrintString+0x60>
800116ec:	e8bd8030 	pop	{r4, r5, pc}

800116f0 <PrintNum>:
800116f0:	e92d4ff0 	push	{r4, r5, r6, r7, r8, r9, sl, fp, lr}
800116f4:	e24dd00c 	sub	sp, sp, #12
800116f8:	e1a0a002 	mov	sl, r2
800116fc:	e58d3000 	str	r3, [sp]
80011700:	e1a08000 	mov	r8, r0
80011704:	e1a06000 	mov	r6, r0
80011708:	e5ddb038 	ldrb	fp, [sp, #56]	; 0x38
8001170c:	e2805001 	add	r5, r0, #1
80011710:	e58d0004 	str	r0, [sp, #4]
80011714:	e1a04001 	mov	r4, r1
80011718:	e59d703c 	ldr	r7, [sp, #60]	; 0x3c
8001171c:	ea00000c 	b	80011754 <PrintNum+0x64>
80011720:	e3570000 	cmp	r7, #0
80011724:	e2812037 	add	r2, r1, #55	; 0x37
80011728:	1a00000f 	bne	8001176c <PrintNum+0x7c>
8001172c:	e1a09005 	mov	r9, r5
80011730:	e2811057 	add	r1, r1, #87	; 0x57
80011734:	e5c61000 	strb	r1, [r6]
80011738:	e1a00004 	mov	r0, r4
8001173c:	e1a0100a 	mov	r1, sl
80011740:	eb000b6f 	bl	80014504 <__aeabi_uidiv>
80011744:	e2504000 	subs	r4, r0, #0
80011748:	e2855001 	add	r5, r5, #1
8001174c:	e2866001 	add	r6, r6, #1
80011750:	0a000008 	beq	80011778 <PrintNum+0x88>
80011754:	e1a0100a 	mov	r1, sl
80011758:	e1a00004 	mov	r0, r4
8001175c:	eb000be3 	bl	800146f0 <__aeabi_uidivmod>
80011760:	e3510009 	cmp	r1, #9
80011764:	e2812030 	add	r2, r1, #48	; 0x30
80011768:	caffffec 	bgt	80011720 <PrintNum+0x30>
8001176c:	e5c62000 	strb	r2, [r6]
80011770:	e1a09005 	mov	r9, r5
80011774:	eaffffef 	b	80011738 <PrintNum+0x48>
80011778:	e89d0018 	ldm	sp, {r3, r4}
8001177c:	e3530000 	cmp	r3, #0
80011780:	0a00001a 	beq	800117f0 <PrintNum+0x100>
80011784:	e3a0302d 	mov	r3, #45	; 0x2d
80011788:	e4c93001 	strb	r3, [r9], #1
8001178c:	e59d3030 	ldr	r3, [sp, #48]	; 0x30
80011790:	e0499004 	sub	r9, r9, r4
80011794:	e1590003 	cmp	r9, r3
80011798:	b1a00003 	movlt	r0, r3
8001179c:	e59d3034 	ldr	r3, [sp, #52]	; 0x34
800117a0:	a1a00009 	movge	r0, r9
800117a4:	e3530000 	cmp	r3, #0
800117a8:	1a000018 	bne	80011810 <PrintNum+0x120>
800117ac:	e35b0030 	cmp	fp, #48	; 0x30
800117b0:	1a000030 	bne	80011878 <PrintNum+0x188>
800117b4:	e2402001 	sub	r2, r0, #1
800117b8:	e1590002 	cmp	r9, r2
800117bc:	d2493002 	suble	r3, r9, #2
800117c0:	d2401002 	suble	r1, r0, #2
800117c4:	d0843003 	addle	r3, r4, r3
800117c8:	d0841001 	addle	r1, r4, r1
800117cc:	ca000002 	bgt	800117dc <PrintNum+0xec>
800117d0:	e5e3b001 	strb	fp, [r3, #1]!
800117d4:	e1530001 	cmp	r3, r1
800117d8:	1afffffc 	bne	800117d0 <PrintNum+0xe0>
800117dc:	e3a0102d 	mov	r1, #45	; 0x2d
800117e0:	e0843000 	add	r3, r4, r0
800117e4:	e1a09002 	mov	r9, r2
800117e8:	e5431001 	strb	r1, [r3, #-1]
800117ec:	ea000013 	b	80011840 <PrintNum+0x150>
800117f0:	e59d3030 	ldr	r3, [sp, #48]	; 0x30
800117f4:	e0499004 	sub	r9, r9, r4
800117f8:	e1530009 	cmp	r3, r9
800117fc:	a1a00003 	movge	r0, r3
80011800:	e59d3034 	ldr	r3, [sp, #52]	; 0x34
80011804:	b1a00009 	movlt	r0, r9
80011808:	e3530000 	cmp	r3, #0
8001180c:	0a000019 	beq	80011878 <PrintNum+0x188>
80011810:	e1590000 	cmp	r9, r0
80011814:	b3a0b020 	movlt	fp, #32
80011818:	aa000007 	bge	8001183c <PrintNum+0x14c>
8001181c:	e0843009 	add	r3, r4, r9
80011820:	e4c3b001 	strb	fp, [r3], #1
80011824:	e0432004 	sub	r2, r3, r4
80011828:	e1520000 	cmp	r2, r0
8001182c:	bafffffb 	blt	80011820 <PrintNum+0x130>
80011830:	e59d3034 	ldr	r3, [sp, #52]	; 0x34
80011834:	e3530000 	cmp	r3, #0
80011838:	0a000010 	beq	80011880 <PrintNum+0x190>
8001183c:	e2499001 	sub	r9, r9, #1
80011840:	e3590000 	cmp	r9, #0
80011844:	da000009 	ble	80011870 <PrintNum+0x180>
80011848:	e3a03000 	mov	r3, #0
8001184c:	e0844009 	add	r4, r4, r9
80011850:	e2833001 	add	r3, r3, #1
80011854:	e5d82000 	ldrb	r2, [r8]
80011858:	e5d41000 	ldrb	r1, [r4]
8001185c:	e049c003 	sub	ip, r9, r3
80011860:	e153000c 	cmp	r3, ip
80011864:	e4c81001 	strb	r1, [r8], #1
80011868:	e4442001 	strb	r2, [r4], #-1
8001186c:	bafffff7 	blt	80011850 <PrintNum+0x160>
80011870:	e28dd00c 	add	sp, sp, #12
80011874:	e8bd8ff0 	pop	{r4, r5, r6, r7, r8, r9, sl, fp, pc}
80011878:	e1590000 	cmp	r9, r0
8001187c:	baffffe6 	blt	8001181c <PrintNum+0x12c>
80011880:	e2409001 	sub	r9, r0, #1
80011884:	eaffffed 	b	80011840 <PrintNum+0x150>

80011888 <lp_Print>:
80011888:	e92d4ff0 	push	{r4, r5, r6, r7, r8, r9, sl, fp, lr}
8001188c:	e1a07001 	mov	r7, r1
80011890:	e5d21000 	ldrb	r1, [r2]
80011894:	e1a06000 	mov	r6, r0
80011898:	e1a00001 	mov	r0, r1
8001189c:	e1a01002 	mov	r1, r2
800118a0:	e3500025 	cmp	r0, #37	; 0x25
800118a4:	13500000 	cmpne	r0, #0
800118a8:	e24dd064 	sub	sp, sp, #100	; 0x64
800118ac:	e1a05003 	mov	r5, r3
800118b0:	e3a08000 	mov	r8, #0
800118b4:	e3a09001 	mov	r9, #1
800118b8:	e3a0a020 	mov	sl, #32
800118bc:	e1a04001 	mov	r4, r1
800118c0:	0a0000b6 	beq	80011ba0 <lp_Print+0x318>
800118c4:	e5f43001 	ldrb	r3, [r4, #1]!
800118c8:	e3530000 	cmp	r3, #0
800118cc:	13530025 	cmpne	r3, #37	; 0x25
800118d0:	1afffffb 	bne	800118c4 <lp_Print+0x3c>
800118d4:	e0442001 	sub	r2, r4, r1
800118d8:	e3520050 	cmp	r2, #80	; 0x50
800118dc:	8a000161 	bhi	80011e68 <lp_Print+0x5e0>
800118e0:	e1a00007 	mov	r0, r7
800118e4:	e12fff36 	blx	r6
800118e8:	e5d43000 	ldrb	r3, [r4]
800118ec:	e3530000 	cmp	r3, #0
800118f0:	0a000156 	beq	80011e50 <lp_Print+0x5c8>
800118f4:	e5d40001 	ldrb	r0, [r4, #1]
800118f8:	e350006c 	cmp	r0, #108	; 0x6c
800118fc:	05d40002 	ldrbeq	r0, [r4, #2]
80011900:	12844001 	addne	r4, r4, #1
80011904:	02844002 	addeq	r4, r4, #2
80011908:	e350002d 	cmp	r0, #45	; 0x2d
8001190c:	05d40001 	ldrbeq	r0, [r4, #1]
80011910:	01a03009 	moveq	r3, r9
80011914:	02844001 	addeq	r4, r4, #1
80011918:	11a03008 	movne	r3, r8
8001191c:	e3500030 	cmp	r0, #48	; 0x30
80011920:	0a00011f 	beq	80011da4 <lp_Print+0x51c>
80011924:	e2401030 	sub	r1, r0, #48	; 0x30
80011928:	e20120ff 	and	r2, r1, #255	; 0xff
8001192c:	e3520009 	cmp	r2, #9
80011930:	e1a0b00a 	mov	fp, sl
80011934:	8a000121 	bhi	80011dc0 <lp_Print+0x538>
80011938:	e1a02008 	mov	r2, r8
8001193c:	e5f40001 	ldrb	r0, [r4, #1]!
80011940:	e0822102 	add	r2, r2, r2, lsl #2
80011944:	e0812082 	add	r2, r1, r2, lsl #1
80011948:	e2401030 	sub	r1, r0, #48	; 0x30
8001194c:	e201c0ff 	and	ip, r1, #255	; 0xff
80011950:	e35c0009 	cmp	ip, #9
80011954:	9afffff8 	bls	8001193c <lp_Print+0xb4>
80011958:	e350002e 	cmp	r0, #46	; 0x2e
8001195c:	0a00011a 	beq	80011dcc <lp_Print+0x544>
80011960:	e3500078 	cmp	r0, #120	; 0x78
80011964:	979ff100 	ldrls	pc, [pc, r0, lsl #2]
80011968:	ea000107 	b	80011d8c <lp_Print+0x504>
8001196c:	80011d84 	.word	0x80011d84
80011970:	80011d8c 	.word	0x80011d8c
80011974:	80011d8c 	.word	0x80011d8c
80011978:	80011d8c 	.word	0x80011d8c
8001197c:	80011d8c 	.word	0x80011d8c
80011980:	80011d8c 	.word	0x80011d8c
80011984:	80011d8c 	.word	0x80011d8c
80011988:	80011d8c 	.word	0x80011d8c
8001198c:	80011d8c 	.word	0x80011d8c
80011990:	80011d8c 	.word	0x80011d8c
80011994:	80011d8c 	.word	0x80011d8c
80011998:	80011d8c 	.word	0x80011d8c
8001199c:	80011d8c 	.word	0x80011d8c
800119a0:	80011d8c 	.word	0x80011d8c
800119a4:	80011d8c 	.word	0x80011d8c
800119a8:	80011d8c 	.word	0x80011d8c
800119ac:	80011d8c 	.word	0x80011d8c
800119b0:	80011d8c 	.word	0x80011d8c
800119b4:	80011d8c 	.word	0x80011d8c
800119b8:	80011d8c 	.word	0x80011d8c
800119bc:	80011d8c 	.word	0x80011d8c
800119c0:	80011d8c 	.word	0x80011d8c
800119c4:	80011d8c 	.word	0x80011d8c
800119c8:	80011d8c 	.word	0x80011d8c
800119cc:	80011d8c 	.word	0x80011d8c
800119d0:	80011d8c 	.word	0x80011d8c
800119d4:	80011d8c 	.word	0x80011d8c
800119d8:	80011d8c 	.word	0x80011d8c
800119dc:	80011d8c 	.word	0x80011d8c
800119e0:	80011d8c 	.word	0x80011d8c
800119e4:	80011d8c 	.word	0x80011d8c
800119e8:	80011d8c 	.word	0x80011d8c
800119ec:	80011d8c 	.word	0x80011d8c
800119f0:	80011d8c 	.word	0x80011d8c
800119f4:	80011d8c 	.word	0x80011d8c
800119f8:	80011d8c 	.word	0x80011d8c
800119fc:	80011d8c 	.word	0x80011d8c
80011a00:	80011d8c 	.word	0x80011d8c
80011a04:	80011d8c 	.word	0x80011d8c
80011a08:	80011d8c 	.word	0x80011d8c
80011a0c:	80011d8c 	.word	0x80011d8c
80011a10:	80011d8c 	.word	0x80011d8c
80011a14:	80011d8c 	.word	0x80011d8c
80011a18:	80011d8c 	.word	0x80011d8c
80011a1c:	80011d8c 	.word	0x80011d8c
80011a20:	80011d8c 	.word	0x80011d8c
80011a24:	80011d8c 	.word	0x80011d8c
80011a28:	80011d8c 	.word	0x80011d8c
80011a2c:	80011d8c 	.word	0x80011d8c
80011a30:	80011d8c 	.word	0x80011d8c
80011a34:	80011d8c 	.word	0x80011d8c
80011a38:	80011d8c 	.word	0x80011d8c
80011a3c:	80011d8c 	.word	0x80011d8c
80011a40:	80011d8c 	.word	0x80011d8c
80011a44:	80011d8c 	.word	0x80011d8c
80011a48:	80011d8c 	.word	0x80011d8c
80011a4c:	80011d8c 	.word	0x80011d8c
80011a50:	80011d8c 	.word	0x80011d8c
80011a54:	80011d8c 	.word	0x80011d8c
80011a58:	80011d8c 	.word	0x80011d8c
80011a5c:	80011d8c 	.word	0x80011d8c
80011a60:	80011d8c 	.word	0x80011d8c
80011a64:	80011d8c 	.word	0x80011d8c
80011a68:	80011d8c 	.word	0x80011d8c
80011a6c:	80011d8c 	.word	0x80011d8c
80011a70:	80011d8c 	.word	0x80011d8c
80011a74:	80011d8c 	.word	0x80011d8c
80011a78:	80011d8c 	.word	0x80011d8c
80011a7c:	80011d34 	.word	0x80011d34
80011a80:	80011d8c 	.word	0x80011d8c
80011a84:	80011d8c 	.word	0x80011d8c
80011a88:	80011d8c 	.word	0x80011d8c
80011a8c:	80011d8c 	.word	0x80011d8c
80011a90:	80011d8c 	.word	0x80011d8c
80011a94:	80011d8c 	.word	0x80011d8c
80011a98:	80011d8c 	.word	0x80011d8c
80011a9c:	80011d8c 	.word	0x80011d8c
80011aa0:	80011d8c 	.word	0x80011d8c
80011aa4:	80011d8c 	.word	0x80011d8c
80011aa8:	80011cf4 	.word	0x80011cf4
80011aac:	80011d8c 	.word	0x80011d8c
80011ab0:	80011d8c 	.word	0x80011d8c
80011ab4:	80011d8c 	.word	0x80011d8c
80011ab8:	80011d8c 	.word	0x80011d8c
80011abc:	80011d8c 	.word	0x80011d8c
80011ac0:	80011cb4 	.word	0x80011cb4
80011ac4:	80011d8c 	.word	0x80011d8c
80011ac8:	80011d8c 	.word	0x80011d8c
80011acc:	80011c74 	.word	0x80011c74
80011ad0:	80011d8c 	.word	0x80011d8c
80011ad4:	80011d8c 	.word	0x80011d8c
80011ad8:	80011d8c 	.word	0x80011d8c
80011adc:	80011d8c 	.word	0x80011d8c
80011ae0:	80011d8c 	.word	0x80011d8c
80011ae4:	80011d8c 	.word	0x80011d8c
80011ae8:	80011d8c 	.word	0x80011d8c
80011aec:	80011d8c 	.word	0x80011d8c
80011af0:	80011d8c 	.word	0x80011d8c
80011af4:	80011c34 	.word	0x80011c34
80011af8:	80011bd8 	.word	0x80011bd8
80011afc:	80011d34 	.word	0x80011d34
80011b00:	80011d8c 	.word	0x80011d8c
80011b04:	80011d8c 	.word	0x80011d8c
80011b08:	80011d8c 	.word	0x80011d8c
80011b0c:	80011d8c 	.word	0x80011d8c
80011b10:	80011d8c 	.word	0x80011d8c
80011b14:	80011d8c 	.word	0x80011d8c
80011b18:	80011d8c 	.word	0x80011d8c
80011b1c:	80011d8c 	.word	0x80011d8c
80011b20:	80011d8c 	.word	0x80011d8c
80011b24:	80011d8c 	.word	0x80011d8c
80011b28:	80011cf4 	.word	0x80011cf4
80011b2c:	80011d8c 	.word	0x80011d8c
80011b30:	80011d8c 	.word	0x80011d8c
80011b34:	80011d8c 	.word	0x80011d8c
80011b38:	80011ba8 	.word	0x80011ba8
80011b3c:	80011d8c 	.word	0x80011d8c
80011b40:	80011cb4 	.word	0x80011cb4
80011b44:	80011d8c 	.word	0x80011d8c
80011b48:	80011d8c 	.word	0x80011d8c
80011b4c:	80011b50 	.word	0x80011b50
80011b50:	e5951000 	ldr	r1, [r5]
80011b54:	e88d080c 	stm	sp, {r2, r3, fp}
80011b58:	e3a02010 	mov	r2, #16
80011b5c:	e58d800c 	str	r8, [sp, #12]
80011b60:	e08d0002 	add	r0, sp, r2
80011b64:	e3a03000 	mov	r3, #0
80011b68:	ebfffee0 	bl	800116f0 <PrintNum>
80011b6c:	e3500050 	cmp	r0, #80	; 0x50
80011b70:	e2855004 	add	r5, r5, #4
80011b74:	e1a02000 	mov	r2, r0
80011b78:	8a0000bf 	bhi	80011e7c <lp_Print+0x5f4>
80011b7c:	e1a00007 	mov	r0, r7
80011b80:	e28d1010 	add	r1, sp, #16
80011b84:	e12fff36 	blx	r6
80011b88:	e5d40001 	ldrb	r0, [r4, #1]
80011b8c:	e3500025 	cmp	r0, #37	; 0x25
80011b90:	13500000 	cmpne	r0, #0
80011b94:	e2841001 	add	r1, r4, #1
80011b98:	e1a04001 	mov	r4, r1
80011b9c:	1affff48 	bne	800118c4 <lp_Print+0x3c>
80011ba0:	e1a02008 	mov	r2, r8
80011ba4:	eaffff4d 	b	800118e0 <lp_Print+0x58>
80011ba8:	e5951000 	ldr	r1, [r5]
80011bac:	e28d0010 	add	r0, sp, #16
80011bb0:	ebfffe8d 	bl	800115ec <PrintString>
80011bb4:	e3500050 	cmp	r0, #80	; 0x50
80011bb8:	e1a02000 	mov	r2, r0
80011bbc:	e2855004 	add	r5, r5, #4
80011bc0:	9affffed 	bls	80011b7c <lp_Print+0x2f4>
80011bc4:	e1a00007 	mov	r0, r7
80011bc8:	e3a02018 	mov	r2, #24
80011bcc:	e59f12c8 	ldr	r1, [pc, #712]	; 80011e9c <lp_Print+0x614>
80011bd0:	e12fff36 	blx	r6
80011bd4:	eafffffe 	b	80011bd4 <lp_Print+0x34c>
80011bd8:	e3520000 	cmp	r2, #0
80011bdc:	e285c004 	add	ip, r5, #4
80011be0:	e5d50000 	ldrb	r0, [r5]
80011be4:	0a000093 	beq	80011e38 <lp_Print+0x5b0>
80011be8:	e3530000 	cmp	r3, #0
80011bec:	0a000080 	beq	80011df4 <lp_Print+0x56c>
80011bf0:	e3520001 	cmp	r2, #1
80011bf4:	e5cd0010 	strb	r0, [sp, #16]
80011bf8:	0a000007 	beq	80011c1c <lp_Print+0x394>
80011bfc:	e28d3010 	add	r3, sp, #16
80011c00:	e2421001 	sub	r1, r2, #1
80011c04:	e0831001 	add	r1, r3, r1
80011c08:	e5e3a001 	strb	sl, [r3, #1]!
80011c0c:	e1530001 	cmp	r3, r1
80011c10:	1afffffc 	bne	80011c08 <lp_Print+0x380>
80011c14:	e3520050 	cmp	r2, #80	; 0x50
80011c18:	ca000081 	bgt	80011e24 <lp_Print+0x59c>
80011c1c:	e1a00007 	mov	r0, r7
80011c20:	e28d1010 	add	r1, sp, #16
80011c24:	e1a0500c 	mov	r5, ip
80011c28:	e12fff36 	blx	r6
80011c2c:	e5d40001 	ldrb	r0, [r4, #1]
80011c30:	eaffffd5 	b	80011b8c <lp_Print+0x304>
80011c34:	e5951000 	ldr	r1, [r5]
80011c38:	e28d0010 	add	r0, sp, #16
80011c3c:	e88d080c 	stm	sp, {r2, r3, fp}
80011c40:	e58d800c 	str	r8, [sp, #12]
80011c44:	e3a02002 	mov	r2, #2
80011c48:	e3a03000 	mov	r3, #0
80011c4c:	ebfffea7 	bl	800116f0 <PrintNum>
80011c50:	e3500050 	cmp	r0, #80	; 0x50
80011c54:	e2855004 	add	r5, r5, #4
80011c58:	e1a02000 	mov	r2, r0
80011c5c:	9affffc6 	bls	80011b7c <lp_Print+0x2f4>
80011c60:	e1a00007 	mov	r0, r7
80011c64:	e3a02018 	mov	r2, #24
80011c68:	e59f122c 	ldr	r1, [pc, #556]	; 80011e9c <lp_Print+0x614>
80011c6c:	e12fff36 	blx	r6
80011c70:	eafffffe 	b	80011c70 <lp_Print+0x3e8>
80011c74:	e5951000 	ldr	r1, [r5]
80011c78:	e88d080c 	stm	sp, {r2, r3, fp}
80011c7c:	e3a02010 	mov	r2, #16
80011c80:	e58d900c 	str	r9, [sp, #12]
80011c84:	e08d0002 	add	r0, sp, r2
80011c88:	e1a03008 	mov	r3, r8
80011c8c:	ebfffe97 	bl	800116f0 <PrintNum>
80011c90:	e3500050 	cmp	r0, #80	; 0x50
80011c94:	e2855004 	add	r5, r5, #4
80011c98:	e1a02000 	mov	r2, r0
80011c9c:	9affffb6 	bls	80011b7c <lp_Print+0x2f4>
80011ca0:	e1a00007 	mov	r0, r7
80011ca4:	e3a02018 	mov	r2, #24
80011ca8:	e59f11ec 	ldr	r1, [pc, #492]	; 80011e9c <lp_Print+0x614>
80011cac:	e12fff36 	blx	r6
80011cb0:	eafffffe 	b	80011cb0 <lp_Print+0x428>
80011cb4:	e5951000 	ldr	r1, [r5]
80011cb8:	e28d0010 	add	r0, sp, #16
80011cbc:	e88d080c 	stm	sp, {r2, r3, fp}
80011cc0:	e58d800c 	str	r8, [sp, #12]
80011cc4:	e3a0200a 	mov	r2, #10
80011cc8:	e3a03000 	mov	r3, #0
80011ccc:	ebfffe87 	bl	800116f0 <PrintNum>
80011cd0:	e3500050 	cmp	r0, #80	; 0x50
80011cd4:	e2855004 	add	r5, r5, #4
80011cd8:	e1a02000 	mov	r2, r0
80011cdc:	9affffa6 	bls	80011b7c <lp_Print+0x2f4>
80011ce0:	e1a00007 	mov	r0, r7
80011ce4:	e3a02018 	mov	r2, #24
80011ce8:	e59f11ac 	ldr	r1, [pc, #428]	; 80011e9c <lp_Print+0x614>
80011cec:	e12fff36 	blx	r6
80011cf0:	eafffffe 	b	80011cf0 <lp_Print+0x468>
80011cf4:	e5951000 	ldr	r1, [r5]
80011cf8:	e28d0010 	add	r0, sp, #16
80011cfc:	e88d080c 	stm	sp, {r2, r3, fp}
80011d00:	e58d800c 	str	r8, [sp, #12]
80011d04:	e3a02008 	mov	r2, #8
80011d08:	e3a03000 	mov	r3, #0
80011d0c:	ebfffe77 	bl	800116f0 <PrintNum>
80011d10:	e3500050 	cmp	r0, #80	; 0x50
80011d14:	e2855004 	add	r5, r5, #4
80011d18:	e1a02000 	mov	r2, r0
80011d1c:	9affff96 	bls	80011b7c <lp_Print+0x2f4>
80011d20:	e1a00007 	mov	r0, r7
80011d24:	e3a02018 	mov	r2, #24
80011d28:	e59f116c 	ldr	r1, [pc, #364]	; 80011e9c <lp_Print+0x614>
80011d2c:	e12fff36 	blx	r6
80011d30:	eafffffe 	b	80011d30 <lp_Print+0x4a8>
80011d34:	e5951000 	ldr	r1, [r5]
80011d38:	e88d080c 	stm	sp, {r2, r3, fp}
80011d3c:	e3510000 	cmp	r1, #0
80011d40:	b1a00009 	movlt	r0, r9
80011d44:	a1a00008 	movge	r0, r8
80011d48:	b2611000 	rsblt	r1, r1, #0
80011d4c:	e1a03000 	mov	r3, r0
80011d50:	e3a0200a 	mov	r2, #10
80011d54:	e58d800c 	str	r8, [sp, #12]
80011d58:	e28d0010 	add	r0, sp, #16
80011d5c:	ebfffe63 	bl	800116f0 <PrintNum>
80011d60:	e3500050 	cmp	r0, #80	; 0x50
80011d64:	e2855004 	add	r5, r5, #4
80011d68:	e1a02000 	mov	r2, r0
80011d6c:	9affff82 	bls	80011b7c <lp_Print+0x2f4>
80011d70:	e1a00007 	mov	r0, r7
80011d74:	e3a02018 	mov	r2, #24
80011d78:	e59f111c 	ldr	r1, [pc, #284]	; 80011e9c <lp_Print+0x614>
80011d7c:	e12fff36 	blx	r6
80011d80:	eafffffe 	b	80011d80 <lp_Print+0x4f8>
80011d84:	e2444001 	sub	r4, r4, #1
80011d88:	eaffff7f 	b	80011b8c <lp_Print+0x304>
80011d8c:	e1a00007 	mov	r0, r7
80011d90:	e1a02009 	mov	r2, r9
80011d94:	e1a01004 	mov	r1, r4
80011d98:	e12fff36 	blx	r6
80011d9c:	e5d40001 	ldrb	r0, [r4, #1]
80011da0:	eaffff79 	b	80011b8c <lp_Print+0x304>
80011da4:	e5d40001 	ldrb	r0, [r4, #1]
80011da8:	e3a0b030 	mov	fp, #48	; 0x30
80011dac:	e2401030 	sub	r1, r0, #48	; 0x30
80011db0:	e20120ff 	and	r2, r1, #255	; 0xff
80011db4:	e3520009 	cmp	r2, #9
80011db8:	e2844001 	add	r4, r4, #1
80011dbc:	9afffedd 	bls	80011938 <lp_Print+0xb0>
80011dc0:	e350002e 	cmp	r0, #46	; 0x2e
80011dc4:	e1a02008 	mov	r2, r8
80011dc8:	1afffee4 	bne	80011960 <lp_Print+0xd8>
80011dcc:	e5d40001 	ldrb	r0, [r4, #1]
80011dd0:	e2844001 	add	r4, r4, #1
80011dd4:	e2401030 	sub	r1, r0, #48	; 0x30
80011dd8:	e3510009 	cmp	r1, #9
80011ddc:	8afffedf 	bhi	80011960 <lp_Print+0xd8>
80011de0:	e5f40001 	ldrb	r0, [r4, #1]!
80011de4:	e2401030 	sub	r1, r0, #48	; 0x30
80011de8:	e3510009 	cmp	r1, #9
80011dec:	9afffffb 	bls	80011de0 <lp_Print+0x558>
80011df0:	eafffeda 	b	80011960 <lp_Print+0xd8>
80011df4:	e2423001 	sub	r3, r2, #1
80011df8:	e3530000 	cmp	r3, #0
80011dfc:	e28d1010 	add	r1, sp, #16
80011e00:	e0813003 	add	r3, r1, r3
80011e04:	128d1010 	addne	r1, sp, #16
80011e08:	0a000002 	beq	80011e18 <lp_Print+0x590>
80011e0c:	e4c1a001 	strb	sl, [r1], #1
80011e10:	e1530001 	cmp	r3, r1
80011e14:	1afffffc 	bne	80011e0c <lp_Print+0x584>
80011e18:	e5c30000 	strb	r0, [r3]
80011e1c:	e3520050 	cmp	r2, #80	; 0x50
80011e20:	daffff7d 	ble	80011c1c <lp_Print+0x394>
80011e24:	e1a00007 	mov	r0, r7
80011e28:	e3a02018 	mov	r2, #24
80011e2c:	e59f1068 	ldr	r1, [pc, #104]	; 80011e9c <lp_Print+0x614>
80011e30:	e12fff36 	blx	r6
80011e34:	eafffffe 	b	80011e34 <lp_Print+0x5ac>
80011e38:	e3530000 	cmp	r3, #0
80011e3c:	1a000013 	bne	80011e90 <lp_Print+0x608>
80011e40:	e28d3010 	add	r3, sp, #16
80011e44:	e1a02009 	mov	r2, r9
80011e48:	e5c30000 	strb	r0, [r3]
80011e4c:	eafffff2 	b	80011e1c <lp_Print+0x594>
80011e50:	e1a00007 	mov	r0, r7
80011e54:	e3a02001 	mov	r2, #1
80011e58:	e59f1040 	ldr	r1, [pc, #64]	; 80011ea0 <lp_Print+0x618>
80011e5c:	e12fff36 	blx	r6
80011e60:	e28dd064 	add	sp, sp, #100	; 0x64
80011e64:	e8bd8ff0 	pop	{r4, r5, r6, r7, r8, r9, sl, fp, pc}
80011e68:	e1a00007 	mov	r0, r7
80011e6c:	e3a02018 	mov	r2, #24
80011e70:	e59f1024 	ldr	r1, [pc, #36]	; 80011e9c <lp_Print+0x614>
80011e74:	e12fff36 	blx	r6
80011e78:	eafffffe 	b	80011e78 <lp_Print+0x5f0>
80011e7c:	e1a00007 	mov	r0, r7
80011e80:	e3a02018 	mov	r2, #24
80011e84:	e59f1010 	ldr	r1, [pc, #16]	; 80011e9c <lp_Print+0x614>
80011e88:	e12fff36 	blx	r6
80011e8c:	eafffffe 	b	80011e8c <lp_Print+0x604>
80011e90:	e5cd0010 	strb	r0, [sp, #16]
80011e94:	e1a02009 	mov	r2, r9
80011e98:	eaffff5f 	b	80011c1c <lp_Print+0x394>
80011e9c:	800156d0 	.word	0x800156d0
80011ea0:	800156ec 	.word	0x800156ec

80011ea4 <myoutput>:
80011ea4:	e3520001 	cmp	r2, #1
80011ea8:	e92d41f0 	push	{r4, r5, r6, r7, r8, lr}
80011eac:	0a000016 	beq	80011f0c <myoutput+0x68>
80011eb0:	e3520000 	cmp	r2, #0
80011eb4:	d8bd81f0 	pople	{r4, r5, r6, r7, r8, pc}
80011eb8:	e1a06002 	mov	r6, r2
80011ebc:	e1a04001 	mov	r4, r1
80011ec0:	e3a05000 	mov	r5, #0
80011ec4:	e3a0700d 	mov	r7, #13
80011ec8:	ea000003 	b	80011edc <myoutput+0x38>
80011ecc:	ebfff8e0 	bl	80010254 <uart0_putc>
80011ed0:	e1560005 	cmp	r6, r5
80011ed4:	e2844001 	add	r4, r4, #1
80011ed8:	da00000a 	ble	80011f08 <myoutput+0x64>
80011edc:	e5d40000 	ldrb	r0, [r4]
80011ee0:	e2855001 	add	r5, r5, #1
80011ee4:	e350000a 	cmp	r0, #10
80011ee8:	1afffff7 	bne	80011ecc <myoutput+0x28>
80011eec:	e1a00007 	mov	r0, r7
80011ef0:	ebfff8d7 	bl	80010254 <uart0_putc>
80011ef4:	e5d40000 	ldrb	r0, [r4]
80011ef8:	ebfff8d5 	bl	80010254 <uart0_putc>
80011efc:	e1560005 	cmp	r6, r5
80011f00:	e2844001 	add	r4, r4, #1
80011f04:	cafffff4 	bgt	80011edc <myoutput+0x38>
80011f08:	e8bd81f0 	pop	{r4, r5, r6, r7, r8, pc}
80011f0c:	e5d13000 	ldrb	r3, [r1]
80011f10:	e3530000 	cmp	r3, #0
80011f14:	1affffe7 	bne	80011eb8 <myoutput+0x14>
80011f18:	e8bd81f0 	pop	{r4, r5, r6, r7, r8, pc}

80011f1c <printf>:
80011f1c:	e92d000f 	push	{r0, r1, r2, r3}
80011f20:	e52de004 	push	{lr}		; (str lr, [sp, #-4]!)
80011f24:	e24dd00c 	sub	sp, sp, #12
80011f28:	e28dc014 	add	ip, sp, #20
80011f2c:	e1a0300c 	mov	r3, ip
80011f30:	e59d2010 	ldr	r2, [sp, #16]
80011f34:	e3a01000 	mov	r1, #0
80011f38:	e59f0014 	ldr	r0, [pc, #20]	; 80011f54 <printf+0x38>
80011f3c:	e58dc004 	str	ip, [sp, #4]
80011f40:	ebfffe50 	bl	80011888 <lp_Print>
80011f44:	e28dd00c 	add	sp, sp, #12
80011f48:	e49de004 	pop	{lr}		; (ldr lr, [sp], #4)
80011f4c:	e28dd010 	add	sp, sp, #16
80011f50:	e12fff1e 	bx	lr
80011f54:	80011ea4 	.word	0x80011ea4

80011f58 <_panic>:
80011f58:	e92d000c 	push	{r2, r3}
80011f5c:	e52de004 	push	{lr}		; (str lr, [sp, #-4]!)
80011f60:	e24dd00c 	sub	sp, sp, #12
80011f64:	e1a02001 	mov	r2, r1
80011f68:	e28d3014 	add	r3, sp, #20
80011f6c:	e1a01000 	mov	r1, r0
80011f70:	e59f0024 	ldr	r0, [pc, #36]	; 80011f9c <_panic+0x44>
80011f74:	e58d3004 	str	r3, [sp, #4]
80011f78:	ebffffe7 	bl	80011f1c <printf>
80011f7c:	e59f001c 	ldr	r0, [pc, #28]	; 80011fa0 <_panic+0x48>
80011f80:	e59d2010 	ldr	r2, [sp, #16]
80011f84:	e59d3004 	ldr	r3, [sp, #4]
80011f88:	e3a01000 	mov	r1, #0
80011f8c:	ebfffe3d 	bl	80011888 <lp_Print>
80011f90:	e59f000c 	ldr	r0, [pc, #12]	; 80011fa4 <_panic+0x4c>
80011f94:	ebffffe0 	bl	80011f1c <printf>
80011f98:	eafffffe 	b	80011f98 <_panic+0x40>
80011f9c:	80014c4c 	.word	0x80014c4c
80011fa0:	80011ea4 	.word	0x80011ea4
80011fa4:	80014940 	.word	0x80014940

80011fa8 <sched_yield>:
80011fa8:	e92d4070 	push	{r4, r5, r6, lr}
80011fac:	e59f5084 	ldr	r5, [pc, #132]	; 80012038 <sched_yield+0x90>
80011fb0:	e59f4084 	ldr	r4, [pc, #132]	; 8001203c <sched_yield+0x94>
80011fb4:	e5952000 	ldr	r2, [r5]
80011fb8:	e3520000 	cmp	r2, #0
80011fbc:	0a00000e 	beq	80011ffc <sched_yield+0x54>
80011fc0:	e5943000 	ldr	r3, [r4]
80011fc4:	e3530000 	cmp	r3, #0
80011fc8:	e2433001 	sub	r3, r3, #1
80011fcc:	da00000b 	ble	80012000 <sched_yield+0x58>
80011fd0:	e5940004 	ldr	r0, [r4, #4]
80011fd4:	e5843000 	str	r3, [r4]
80011fd8:	e3500000 	cmp	r0, #0
80011fdc:	0afffff4 	beq	80011fb4 <sched_yield+0xc>
80011fe0:	e5903054 	ldr	r3, [r0, #84]	; 0x54
80011fe4:	e3530001 	cmp	r3, #1
80011fe8:	1afffff1 	bne	80011fb4 <sched_yield+0xc>
80011fec:	ebfffb81 	bl	80010df8 <env_run>
80011ff0:	e5952000 	ldr	r2, [r5]
80011ff4:	e3520000 	cmp	r2, #0
80011ff8:	1afffff0 	bne	80011fc0 <sched_yield+0x18>
80011ffc:	e8bd8070 	pop	{r4, r5, r6, pc}
80012000:	e5943004 	ldr	r3, [r4, #4]
80012004:	e3530000 	cmp	r3, #0
80012008:	0a000007 	beq	8001202c <sched_yield+0x84>
8001200c:	e5930060 	ldr	r0, [r3, #96]	; 0x60
80012010:	e3500000 	cmp	r0, #0
80012014:	e5840004 	str	r0, [r4, #4]
80012018:	0a000003 	beq	8001202c <sched_yield+0x84>
8001201c:	e5903068 	ldr	r3, [r0, #104]	; 0x68
80012020:	e2433001 	sub	r3, r3, #1
80012024:	e5843000 	str	r3, [r4]
80012028:	eaffffec 	b	80011fe0 <sched_yield+0x38>
8001202c:	e5842004 	str	r2, [r4, #4]
80012030:	e1a00002 	mov	r0, r2
80012034:	eafffff8 	b	8001201c <sched_yield+0x74>
80012038:	80024a68 	.word	0x80024a68
8001203c:	80018010 	.word	0x80018010

80012040 <sched_init>:
80012040:	e3a02000 	mov	r2, #0
80012044:	e59f3004 	ldr	r3, [pc, #4]	; 80012050 <sched_init+0x10>
80012048:	e5832000 	str	r2, [r3]
8001204c:	e12fff1e 	bx	lr
80012050:	80024a68 	.word	0x80024a68

80012054 <svc_call>:
80012054:	e92d43f0 	push	{r4, r5, r6, r7, r8, r9, lr}
80012058:	e1a08001 	mov	r8, r1
8001205c:	e1a05002 	mov	r5, r2
80012060:	e1a09003 	mov	r9, r3
80012064:	e24dd014 	sub	sp, sp, #20
80012068:	e59d6030 	ldr	r6, [sp, #48]	; 0x30
8001206c:	e59d4034 	ldr	r4, [sp, #52]	; 0x34
80012070:	e1a07000 	mov	r7, r0
80012074:	e58d3000 	str	r3, [sp]
80012078:	e58d6004 	str	r6, [sp, #4]
8001207c:	e1a03002 	mov	r3, r2
80012080:	e58d4008 	str	r4, [sp, #8]
80012084:	e1a02001 	mov	r2, r1
80012088:	e1a01000 	mov	r1, r0
8001208c:	e59f0018 	ldr	r0, [pc, #24]	; 800120ac <svc_call+0x58>
80012090:	ebffffa1 	bl	80011f1c <printf>
80012094:	e0060699 	mul	r6, r9, r6
80012098:	e0000895 	mul	r0, r5, r8
8001209c:	e0200694 	mla	r0, r4, r6, r0
800120a0:	e0800007 	add	r0, r0, r7
800120a4:	e28dd014 	add	sp, sp, #20
800120a8:	e8bd83f0 	pop	{r4, r5, r6, r7, r8, r9, pc}
800120ac:	80014c60 	.word	0x80014c60

800120b0 <sys_putchar>:
800120b0:	e3a02006 	mov	r2, #6
800120b4:	e3a03005 	mov	r3, #5
800120b8:	e92d4010 	push	{r4, lr}
800120bc:	e24dd008 	sub	sp, sp, #8
800120c0:	e1a04001 	mov	r4, r1
800120c4:	e58d2004 	str	r2, [sp, #4]
800120c8:	e58d3000 	str	r3, [sp]
800120cc:	e3a02003 	mov	r2, #3
800120d0:	e3a03004 	mov	r3, #4
800120d4:	e3a01002 	mov	r1, #2
800120d8:	e3a00001 	mov	r0, #1
800120dc:	ebffffdc 	bl	80012054 <svc_call>
800120e0:	e1840000 	orr	r0, r4, r0
800120e4:	e20000ff 	and	r0, r0, #255	; 0xff
800120e8:	e28dd008 	add	sp, sp, #8
800120ec:	e8bd4010 	pop	{r4, lr}
800120f0:	eafff857 	b	80010254 <uart0_putc>

800120f4 <memcpy>:
800120f4:	e3520000 	cmp	r2, #0
800120f8:	012fff1e 	bxeq	lr
800120fc:	e0812002 	add	r2, r1, r2
80012100:	e2403001 	sub	r3, r0, #1
80012104:	e4d1c001 	ldrb	ip, [r1], #1
80012108:	e1510002 	cmp	r1, r2
8001210c:	e5e3c001 	strb	ip, [r3, #1]!
80012110:	1afffffb 	bne	80012104 <memcpy+0x10>
80012114:	e12fff1e 	bx	lr

80012118 <sys_getenvid>:
80012118:	e59f3008 	ldr	r3, [pc, #8]	; 80012128 <sys_getenvid+0x10>
8001211c:	e5933000 	ldr	r3, [r3]
80012120:	e593004c 	ldr	r0, [r3, #76]	; 0x4c
80012124:	e12fff1e 	bx	lr
80012128:	8001800c 	.word	0x8001800c

8001212c <sys_yield>:
8001212c:	eaffff9d 	b	80011fa8 <sched_yield>

80012130 <sys_env_destroy>:
80012130:	e52de004 	push	{lr}		; (str lr, [sp, #-4]!)
80012134:	e24dd00c 	sub	sp, sp, #12
80012138:	e1a00001 	mov	r0, r1
8001213c:	e3a02001 	mov	r2, #1
80012140:	e28d1004 	add	r1, sp, #4
80012144:	ebfff98d 	bl	80010780 <envid2env>
80012148:	e3500000 	cmp	r0, #0
8001214c:	ba000009 	blt	80012178 <sys_env_destroy+0x48>
80012150:	e59f3028 	ldr	r3, [pc, #40]	; 80012180 <sys_env_destroy+0x50>
80012154:	e59d2004 	ldr	r2, [sp, #4]
80012158:	e5933000 	ldr	r3, [r3]
8001215c:	e592204c 	ldr	r2, [r2, #76]	; 0x4c
80012160:	e593104c 	ldr	r1, [r3, #76]	; 0x4c
80012164:	e59f0018 	ldr	r0, [pc, #24]	; 80012184 <sys_env_destroy+0x54>
80012168:	ebffff6b 	bl	80011f1c <printf>
8001216c:	e59d0004 	ldr	r0, [sp, #4]
80012170:	ebfffb05 	bl	80010d8c <env_destroy>
80012174:	e3a00000 	mov	r0, #0
80012178:	e28dd00c 	add	sp, sp, #12
8001217c:	e49df004 	pop	{pc}		; (ldr pc, [sp], #4)
80012180:	8001800c 	.word	0x8001800c
80012184:	80014c80 	.word	0x80014c80

80012188 <sys_set_pgfault_handler>:
80012188:	e92d4070 	push	{r4, r5, r6, lr}
8001218c:	e24dd008 	sub	sp, sp, #8
80012190:	e1a00001 	mov	r0, r1
80012194:	e1a06002 	mov	r6, r2
80012198:	e28d1004 	add	r1, sp, #4
8001219c:	e59f2034 	ldr	r2, [pc, #52]	; 800121d8 <sys_set_pgfault_handler+0x50>
800121a0:	e1a05003 	mov	r5, r3
800121a4:	ebfff975 	bl	80010780 <envid2env>
800121a8:	e2504000 	subs	r4, r0, #0
800121ac:	ba000005 	blt	800121c8 <sys_set_pgfault_handler+0x40>
800121b0:	e3a00000 	mov	r0, #0
800121b4:	e59d2004 	ldr	r2, [sp, #4]
800121b8:	e5826080 	str	r6, [r2, #128]	; 0x80
800121bc:	e5825084 	str	r5, [r2, #132]	; 0x84
800121c0:	e28dd008 	add	sp, sp, #8
800121c4:	e8bd8070 	pop	{r4, r5, r6, pc}
800121c8:	e59f000c 	ldr	r0, [pc, #12]	; 800121dc <sys_set_pgfault_handler+0x54>
800121cc:	ebffff52 	bl	80011f1c <printf>
800121d0:	e1a00004 	mov	r0, r4
800121d4:	eafffff9 	b	800121c0 <sys_set_pgfault_handler+0x38>
800121d8:	0000042a 	.word	0x0000042a
800121dc:	80014c98 	.word	0x80014c98

800121e0 <sys_mem_alloc>:
800121e0:	e92d4070 	push	{r4, r5, r6, lr}
800121e4:	e59fc0c0 	ldr	ip, [pc, #192]	; 800122ac <sys_mem_alloc+0xcc>
800121e8:	e24dd008 	sub	sp, sp, #8
800121ec:	e152000c 	cmp	r2, ip
800121f0:	8a000028 	bhi	80012298 <sys_mem_alloc+0xb8>
800121f4:	e1a06003 	mov	r6, r3
800121f8:	e59f30b0 	ldr	r3, [pc, #176]	; 800122b0 <sys_mem_alloc+0xd0>
800121fc:	e0033006 	and	r3, r3, r6
80012200:	e3530000 	cmp	r3, #0
80012204:	0a00001f 	beq	80012288 <sys_mem_alloc+0xa8>
80012208:	e1a00001 	mov	r0, r1
8001220c:	e1a05002 	mov	r5, r2
80012210:	e1a0100d 	mov	r1, sp
80012214:	e3a02000 	mov	r2, #0
80012218:	ebfff958 	bl	80010780 <envid2env>
8001221c:	e2504000 	subs	r4, r0, #0
80012220:	ba00000e 	blt	80012260 <sys_mem_alloc+0x80>
80012224:	e28d0004 	add	r0, sp, #4
80012228:	eb000260 	bl	80012bb0 <page_alloc>
8001222c:	e2504000 	subs	r4, r0, #0
80012230:	ba00000a 	blt	80012260 <sys_mem_alloc+0x80>
80012234:	e59d1000 	ldr	r1, [sp]
80012238:	e1a03006 	mov	r3, r6
8001223c:	e5910058 	ldr	r0, [r1, #88]	; 0x58
80012240:	e1a02005 	mov	r2, r5
80012244:	e59d1004 	ldr	r1, [sp, #4]
80012248:	eb00033d 	bl	80012f44 <page_insert>
8001224c:	e2504000 	subs	r4, r0, #0
80012250:	a1a00004 	movge	r0, r4
80012254:	ba000006 	blt	80012274 <sys_mem_alloc+0x94>
80012258:	e28dd008 	add	sp, sp, #8
8001225c:	e8bd8070 	pop	{r4, r5, r6, pc}
80012260:	e59f004c 	ldr	r0, [pc, #76]	; 800122b4 <sys_mem_alloc+0xd4>
80012264:	ebffff2c 	bl	80011f1c <printf>
80012268:	e1a00004 	mov	r0, r4
8001226c:	e28dd008 	add	sp, sp, #8
80012270:	e8bd8070 	pop	{r4, r5, r6, pc}
80012274:	e59f003c 	ldr	r0, [pc, #60]	; 800122b8 <sys_mem_alloc+0xd8>
80012278:	ebffff27 	bl	80011f1c <printf>
8001227c:	e1a00004 	mov	r0, r4
80012280:	e28dd008 	add	sp, sp, #8
80012284:	e8bd8070 	pop	{r4, r5, r6, pc}
80012288:	e59f002c 	ldr	r0, [pc, #44]	; 800122bc <sys_mem_alloc+0xdc>
8001228c:	ebffff22 	bl	80011f1c <printf>
80012290:	e3e00002 	mvn	r0, #2
80012294:	eaffffef 	b	80012258 <sys_mem_alloc+0x78>
80012298:	e59f0020 	ldr	r0, [pc, #32]	; 800122c0 <sys_mem_alloc+0xe0>
8001229c:	e59f1020 	ldr	r1, [pc, #32]	; 800122c4 <sys_mem_alloc+0xe4>
800122a0:	ebffff1d 	bl	80011f1c <printf>
800122a4:	e3e00000 	mvn	r0, #0
800122a8:	eaffffea 	b	80012258 <sys_mem_alloc+0x78>
800122ac:	7fcfffff 	.word	0x7fcfffff
800122b0:	0000042a 	.word	0x0000042a
800122b4:	80014d04 	.word	0x80014d04
800122b8:	80014d24 	.word	0x80014d24
800122bc:	80014ce0 	.word	0x80014ce0
800122c0:	80014cc0 	.word	0x80014cc0
800122c4:	7fd00000 	.word	0x7fd00000

800122c8 <sys_mem_map>:
800122c8:	e92d43f0 	push	{r4, r5, r6, r7, r8, r9, lr}
800122cc:	e1a06002 	mov	r6, r2
800122d0:	e24dd014 	sub	sp, sp, #20
800122d4:	e59d7030 	ldr	r7, [sp, #48]	; 0x30
800122d8:	e59f2120 	ldr	r2, [pc, #288]	; 80012400 <sys_mem_map+0x138>
800122dc:	e59d8034 	ldr	r8, [sp, #52]	; 0x34
800122e0:	e1570002 	cmp	r7, r2
800122e4:	91560002 	cmpls	r6, r2
800122e8:	83a04001 	movhi	r4, #1
800122ec:	93a04000 	movls	r4, #0
800122f0:	8a000036 	bhi	800123d0 <sys_mem_map+0x108>
800122f4:	e59f2108 	ldr	r2, [pc, #264]	; 80012404 <sys_mem_map+0x13c>
800122f8:	e0022008 	and	r2, r2, r8
800122fc:	e3520000 	cmp	r2, #0
80012300:	0a00002e 	beq	800123c0 <sys_mem_map+0xf8>
80012304:	e1a00001 	mov	r0, r1
80012308:	e1a02004 	mov	r2, r4
8001230c:	e28d1004 	add	r1, sp, #4
80012310:	e1a09003 	mov	r9, r3
80012314:	ebfff919 	bl	80010780 <envid2env>
80012318:	e2505000 	subs	r5, r0, #0
8001231c:	ba00001d 	blt	80012398 <sys_mem_map+0xd0>
80012320:	e1a02004 	mov	r2, r4
80012324:	e1a00009 	mov	r0, r9
80012328:	e28d1008 	add	r1, sp, #8
8001232c:	ebfff913 	bl	80010780 <envid2env>
80012330:	e2504000 	subs	r4, r0, #0
80012334:	ba00001c 	blt	800123ac <sys_mem_map+0xe4>
80012338:	e59f40c8 	ldr	r4, [pc, #200]	; 80012408 <sys_mem_map+0x140>
8001233c:	e59d3004 	ldr	r3, [sp, #4]
80012340:	e0066004 	and	r6, r6, r4
80012344:	e1a01006 	mov	r1, r6
80012348:	e5930058 	ldr	r0, [r3, #88]	; 0x58
8001234c:	e28d200c 	add	r2, sp, #12
80012350:	eb0002ab 	bl	80012e04 <page_lookup>
80012354:	e2501000 	subs	r1, r0, #0
80012358:	0a000023 	beq	800123ec <sys_mem_map+0x124>
8001235c:	e59d0008 	ldr	r0, [sp, #8]
80012360:	e0072004 	and	r2, r7, r4
80012364:	e1a03008 	mov	r3, r8
80012368:	e5900058 	ldr	r0, [r0, #88]	; 0x58
8001236c:	eb0002f4 	bl	80012f44 <page_insert>
80012370:	e2504000 	subs	r4, r0, #0
80012374:	a1a00004 	movge	r0, r4
80012378:	ba000001 	blt	80012384 <sys_mem_map+0xbc>
8001237c:	e28dd014 	add	sp, sp, #20
80012380:	e8bd83f0 	pop	{r4, r5, r6, r7, r8, r9, pc}
80012384:	e59f0080 	ldr	r0, [pc, #128]	; 8001240c <sys_mem_map+0x144>
80012388:	ebfffee3 	bl	80011f1c <printf>
8001238c:	e1a00004 	mov	r0, r4
80012390:	e28dd014 	add	sp, sp, #20
80012394:	e8bd83f0 	pop	{r4, r5, r6, r7, r8, r9, pc}
80012398:	e59f0070 	ldr	r0, [pc, #112]	; 80012410 <sys_mem_map+0x148>
8001239c:	ebfffede 	bl	80011f1c <printf>
800123a0:	e1a00005 	mov	r0, r5
800123a4:	e28dd014 	add	sp, sp, #20
800123a8:	e8bd83f0 	pop	{r4, r5, r6, r7, r8, r9, pc}
800123ac:	e59f0060 	ldr	r0, [pc, #96]	; 80012414 <sys_mem_map+0x14c>
800123b0:	ebfffed9 	bl	80011f1c <printf>
800123b4:	e1a00004 	mov	r0, r4
800123b8:	e28dd014 	add	sp, sp, #20
800123bc:	e8bd83f0 	pop	{r4, r5, r6, r7, r8, r9, pc}
800123c0:	e59f0050 	ldr	r0, [pc, #80]	; 80012418 <sys_mem_map+0x150>
800123c4:	ebfffed4 	bl	80011f1c <printf>
800123c8:	e3e00002 	mvn	r0, #2
800123cc:	eaffffea 	b	8001237c <sys_mem_map+0xb4>
800123d0:	e59f0044 	ldr	r0, [pc, #68]	; 8001241c <sys_mem_map+0x154>
800123d4:	e1a02007 	mov	r2, r7
800123d8:	e1a01006 	mov	r1, r6
800123dc:	e59f303c 	ldr	r3, [pc, #60]	; 80012420 <sys_mem_map+0x158>
800123e0:	ebfffecd 	bl	80011f1c <printf>
800123e4:	e3e00000 	mvn	r0, #0
800123e8:	eaffffe3 	b	8001237c <sys_mem_map+0xb4>
800123ec:	e59f0030 	ldr	r0, [pc, #48]	; 80012424 <sys_mem_map+0x15c>
800123f0:	e1a01006 	mov	r1, r6
800123f4:	ebfffec8 	bl	80011f1c <printf>
800123f8:	e3e00000 	mvn	r0, #0
800123fc:	eaffffde 	b	8001237c <sys_mem_map+0xb4>
80012400:	7fcfffff 	.word	0x7fcfffff
80012404:	0000042a 	.word	0x0000042a
80012408:	fffff000 	.word	0xfffff000
8001240c:	80014e20 	.word	0x80014e20
80012410:	80014dbc 	.word	0x80014dbc
80012414:	80014dd8 	.word	0x80014dd8
80012418:	80014d9c 	.word	0x80014d9c
8001241c:	80014d5c 	.word	0x80014d5c
80012420:	7fd00000 	.word	0x7fd00000
80012424:	80014df4 	.word	0x80014df4

80012428 <sys_mem_unmap>:
80012428:	e92d4030 	push	{r4, r5, lr}
8001242c:	e59f306c 	ldr	r3, [pc, #108]	; 800124a0 <sys_mem_unmap+0x78>
80012430:	e24dd00c 	sub	sp, sp, #12
80012434:	e1520003 	cmp	r2, r3
80012438:	e1a05002 	mov	r5, r2
8001243c:	8a000011 	bhi	80012488 <sys_mem_unmap+0x60>
80012440:	e1a00001 	mov	r0, r1
80012444:	e59f2058 	ldr	r2, [pc, #88]	; 800124a4 <sys_mem_unmap+0x7c>
80012448:	e28d1004 	add	r1, sp, #4
8001244c:	ebfff8cb 	bl	80010780 <envid2env>
80012450:	e2504000 	subs	r4, r0, #0
80012454:	ba000006 	blt	80012474 <sys_mem_unmap+0x4c>
80012458:	e59d3004 	ldr	r3, [sp, #4]
8001245c:	e1a01005 	mov	r1, r5
80012460:	e5930058 	ldr	r0, [r3, #88]	; 0x58
80012464:	eb000327 	bl	80013108 <page_remove>
80012468:	e1a00004 	mov	r0, r4
8001246c:	e28dd00c 	add	sp, sp, #12
80012470:	e8bd8030 	pop	{r4, r5, pc}
80012474:	e59f002c 	ldr	r0, [pc, #44]	; 800124a8 <sys_mem_unmap+0x80>
80012478:	ebfffea7 	bl	80011f1c <printf>
8001247c:	e1a00004 	mov	r0, r4
80012480:	e28dd00c 	add	sp, sp, #12
80012484:	e8bd8030 	pop	{r4, r5, pc}
80012488:	e1a01002 	mov	r1, r2
8001248c:	e59f0018 	ldr	r0, [pc, #24]	; 800124ac <sys_mem_unmap+0x84>
80012490:	e59f2018 	ldr	r2, [pc, #24]	; 800124b0 <sys_mem_unmap+0x88>
80012494:	ebfffea0 	bl	80011f1c <printf>
80012498:	e3e00002 	mvn	r0, #2
8001249c:	eafffff2 	b	8001246c <sys_mem_unmap+0x44>
800124a0:	7fcfffff 	.word	0x7fcfffff
800124a4:	0000042a 	.word	0x0000042a
800124a8:	80014e78 	.word	0x80014e78
800124ac:	80014e54 	.word	0x80014e54
800124b0:	7fd00000 	.word	0x7fd00000

800124b4 <sys_env_alloc>:
800124b4:	e92d4010 	push	{r4, lr}
800124b8:	e59f305c 	ldr	r3, [pc, #92]	; 8001251c <sys_env_alloc+0x68>
800124bc:	e24dd008 	sub	sp, sp, #8
800124c0:	e5933000 	ldr	r3, [r3]
800124c4:	e28d0004 	add	r0, sp, #4
800124c8:	e593104c 	ldr	r1, [r3, #76]	; 0x4c
800124cc:	ebfff8e7 	bl	80010870 <env_alloc>
800124d0:	e2504000 	subs	r4, r0, #0
800124d4:	ba00000b 	blt	80012508 <sys_env_alloc+0x54>
800124d8:	e59d1004 	ldr	r1, [sp, #4]
800124dc:	e3a02044 	mov	r2, #68	; 0x44
800124e0:	e59f0038 	ldr	r0, [pc, #56]	; 80012520 <sys_env_alloc+0x6c>
800124e4:	ebfff728 	bl	8001018c <bcopy>
800124e8:	e3a01002 	mov	r1, #2
800124ec:	e3a02000 	mov	r2, #0
800124f0:	e59d3004 	ldr	r3, [sp, #4]
800124f4:	e593004c 	ldr	r0, [r3, #76]	; 0x4c
800124f8:	e5831054 	str	r1, [r3, #84]	; 0x54
800124fc:	e583200c 	str	r2, [r3, #12]
80012500:	e28dd008 	add	sp, sp, #8
80012504:	e8bd8010 	pop	{r4, pc}
80012508:	e59f0014 	ldr	r0, [pc, #20]	; 80012524 <sys_env_alloc+0x70>
8001250c:	ebfffe82 	bl	80011f1c <printf>
80012510:	e1a00004 	mov	r0, r4
80012514:	e28dd008 	add	sp, sp, #8
80012518:	e8bd8010 	pop	{r4, pc}
8001251c:	8001800c 	.word	0x8001800c
80012520:	8000ffac 	.word	0x8000ffac
80012524:	80014e98 	.word	0x80014e98

80012528 <my_set_env_status>:
80012528:	e5902054 	ldr	r2, [r0, #84]	; 0x54
8001252c:	e1a03001 	mov	r3, r1
80012530:	e1520001 	cmp	r2, r1
80012534:	012fff1e 	bxeq	lr
80012538:	e3510001 	cmp	r1, #1
8001253c:	e5801054 	str	r1, [r0, #84]	; 0x54
80012540:	0a000006 	beq	80012560 <my_set_env_status+0x38>
80012544:	e3510002 	cmp	r1, #2
80012548:	0a00000d 	beq	80012584 <my_set_env_status+0x5c>
8001254c:	e3510000 	cmp	r1, #0
80012550:	112fff1e 	bxne	lr
80012554:	e590104c 	ldr	r1, [r0, #76]	; 0x4c
80012558:	e1a00003 	mov	r0, r3
8001255c:	eafffef3 	b	80012130 <sys_env_destroy>
80012560:	e59f3038 	ldr	r3, [pc, #56]	; 800125a0 <my_set_env_status+0x78>
80012564:	e5932000 	ldr	r2, [r3]
80012568:	e5830000 	str	r0, [r3]
8001256c:	e3520000 	cmp	r2, #0
80012570:	12801060 	addne	r1, r0, #96	; 0x60
80012574:	e5802060 	str	r2, [r0, #96]	; 0x60
80012578:	15821064 	strne	r1, [r2, #100]	; 0x64
8001257c:	e5803064 	str	r3, [r0, #100]	; 0x64
80012580:	e12fff1e 	bx	lr
80012584:	e5903060 	ldr	r3, [r0, #96]	; 0x60
80012588:	e3530000 	cmp	r3, #0
8001258c:	15902064 	ldrne	r2, [r0, #100]	; 0x64
80012590:	15832064 	strne	r2, [r3, #100]	; 0x64
80012594:	e5902064 	ldr	r2, [r0, #100]	; 0x64
80012598:	e5823000 	str	r3, [r2]
8001259c:	e12fff1e 	bx	lr
800125a0:	80024a68 	.word	0x80024a68

800125a4 <sys_set_env_status>:
800125a4:	e92d4030 	push	{r4, r5, lr}
800125a8:	e3520002 	cmp	r2, #2
800125ac:	e24dd00c 	sub	sp, sp, #12
800125b0:	8a000011 	bhi	800125fc <sys_set_env_status+0x58>
800125b4:	e1a00001 	mov	r0, r1
800125b8:	e1a05002 	mov	r5, r2
800125bc:	e28d1004 	add	r1, sp, #4
800125c0:	e59f2044 	ldr	r2, [pc, #68]	; 8001260c <sys_set_env_status+0x68>
800125c4:	ebfff86d 	bl	80010780 <envid2env>
800125c8:	e2504000 	subs	r4, r0, #0
800125cc:	ba000005 	blt	800125e8 <sys_set_env_status+0x44>
800125d0:	e59d0004 	ldr	r0, [sp, #4]
800125d4:	e1a01005 	mov	r1, r5
800125d8:	ebffffd2 	bl	80012528 <my_set_env_status>
800125dc:	e3a00000 	mov	r0, #0
800125e0:	e28dd00c 	add	sp, sp, #12
800125e4:	e8bd8030 	pop	{r4, r5, pc}
800125e8:	e59f0020 	ldr	r0, [pc, #32]	; 80012610 <sys_set_env_status+0x6c>
800125ec:	ebfffe4a 	bl	80011f1c <printf>
800125f0:	e1a00004 	mov	r0, r4
800125f4:	e28dd00c 	add	sp, sp, #12
800125f8:	e8bd8030 	pop	{r4, r5, pc}
800125fc:	e59f0010 	ldr	r0, [pc, #16]	; 80012614 <sys_set_env_status+0x70>
80012600:	ebfffe45 	bl	80011f1c <printf>
80012604:	e3e00002 	mvn	r0, #2
80012608:	eafffff4 	b	800125e0 <sys_set_env_status+0x3c>
8001260c:	0000042a 	.word	0x0000042a
80012610:	80014ee4 	.word	0x80014ee4
80012614:	80014ec0 	.word	0x80014ec0

80012618 <sys_set_trapframe>:
80012618:	e92d4010 	push	{r4, lr}
8001261c:	e24dd008 	sub	sp, sp, #8
80012620:	e1a00001 	mov	r0, r1
80012624:	e1a04002 	mov	r4, r2
80012628:	e28d1004 	add	r1, sp, #4
8001262c:	e59f2024 	ldr	r2, [pc, #36]	; 80012658 <sys_set_trapframe+0x40>
80012630:	ebfff852 	bl	80010780 <envid2env>
80012634:	e3500000 	cmp	r0, #0
80012638:	ba000004 	blt	80012650 <sys_set_trapframe+0x38>
8001263c:	e1a01004 	mov	r1, r4
80012640:	e3a02044 	mov	r2, #68	; 0x44
80012644:	e59d0004 	ldr	r0, [sp, #4]
80012648:	ebfffea9 	bl	800120f4 <memcpy>
8001264c:	e3a00000 	mov	r0, #0
80012650:	e28dd008 	add	sp, sp, #8
80012654:	e8bd8010 	pop	{r4, pc}
80012658:	0000042a 	.word	0x0000042a

8001265c <sys_panic>:
8001265c:	e1a03001 	mov	r3, r1
80012660:	e92d4010 	push	{r4, lr}
80012664:	e59f2008 	ldr	r2, [pc, #8]	; 80012674 <sys_panic+0x18>
80012668:	e3a01f61 	mov	r1, #388	; 0x184
8001266c:	e59f0004 	ldr	r0, [pc, #4]	; 80012678 <sys_panic+0x1c>
80012670:	ebfffe38 	bl	80011f58 <_panic>
80012674:	80014f08 	.word	0x80014f08
80012678:	80014f0c 	.word	0x80014f0c

8001267c <sys_ipc_recv>:
8001267c:	e59f3054 	ldr	r3, [pc, #84]	; 800126d8 <sys_ipc_recv+0x5c>
80012680:	e1a02001 	mov	r2, r1
80012684:	e1510003 	cmp	r1, r3
80012688:	8a000010 	bhi	800126d0 <sys_ipc_recv+0x54>
8001268c:	e3a01001 	mov	r1, #1
80012690:	e59f3044 	ldr	r3, [pc, #68]	; 800126dc <sys_ipc_recv+0x60>
80012694:	e5933000 	ldr	r3, [r3]
80012698:	e5930054 	ldr	r0, [r3, #84]	; 0x54
8001269c:	e5832078 	str	r2, [r3, #120]	; 0x78
800126a0:	e3500002 	cmp	r0, #2
800126a4:	e5831074 	str	r1, [r3, #116]	; 0x74
800126a8:	0a000007 	beq	800126cc <sys_ipc_recv+0x50>
800126ac:	e3a01002 	mov	r1, #2
800126b0:	e5932060 	ldr	r2, [r3, #96]	; 0x60
800126b4:	e5831054 	str	r1, [r3, #84]	; 0x54
800126b8:	e3520000 	cmp	r2, #0
800126bc:	15931064 	ldrne	r1, [r3, #100]	; 0x64
800126c0:	15821064 	strne	r1, [r2, #100]	; 0x64
800126c4:	e5933064 	ldr	r3, [r3, #100]	; 0x64
800126c8:	e5832000 	str	r2, [r3]
800126cc:	eafffe35 	b	80011fa8 <sched_yield>
800126d0:	e59f0008 	ldr	r0, [pc, #8]	; 800126e0 <sys_ipc_recv+0x64>
800126d4:	eafffe10 	b	80011f1c <printf>
800126d8:	7fcfffff 	.word	0x7fcfffff
800126dc:	8001800c 	.word	0x8001800c
800126e0:	80014f14 	.word	0x80014f14

800126e4 <sys_ipc_can_send>:
800126e4:	e92d4070 	push	{r4, r5, r6, lr}
800126e8:	e1a04003 	mov	r4, r3
800126ec:	e59f30fc 	ldr	r3, [pc, #252]	; 800127f0 <sys_ipc_can_send+0x10c>
800126f0:	e24dd008 	sub	sp, sp, #8
800126f4:	e1540003 	cmp	r4, r3
800126f8:	8a00002c 	bhi	800127b0 <sys_ipc_can_send+0xcc>
800126fc:	e1a05001 	mov	r5, r1
80012700:	e1a06002 	mov	r6, r2
80012704:	e28d1004 	add	r1, sp, #4
80012708:	e3a02000 	mov	r2, #0
8001270c:	e1a00005 	mov	r0, r5
80012710:	ebfff81a 	bl	80010780 <envid2env>
80012714:	e3500000 	cmp	r0, #0
80012718:	ba00002b 	blt	800127cc <sys_ipc_can_send+0xe8>
8001271c:	e59d0004 	ldr	r0, [sp, #4]
80012720:	e5903074 	ldr	r3, [r0, #116]	; 0x74
80012724:	e3530000 	cmp	r3, #0
80012728:	0a000025 	beq	800127c4 <sys_ipc_can_send+0xe0>
8001272c:	e3540000 	cmp	r4, #0
80012730:	e59f50bc 	ldr	r5, [pc, #188]	; 800127f4 <sys_ipc_can_send+0x110>
80012734:	0a00000d 	beq	80012770 <sys_ipc_can_send+0x8c>
80012738:	e5953000 	ldr	r3, [r5]
8001273c:	e1a01004 	mov	r1, r4
80012740:	e3a02000 	mov	r2, #0
80012744:	e5930058 	ldr	r0, [r3, #88]	; 0x58
80012748:	eb0001ad 	bl	80012e04 <page_lookup>
8001274c:	e59d3004 	ldr	r3, [sp, #4]
80012750:	e1a01000 	mov	r1, r0
80012754:	e5932078 	ldr	r2, [r3, #120]	; 0x78
80012758:	e5930058 	ldr	r0, [r3, #88]	; 0x58
8001275c:	e59d3018 	ldr	r3, [sp, #24]
80012760:	eb0001f7 	bl	80012f44 <page_insert>
80012764:	e3500000 	cmp	r0, #0
80012768:	ba00001c 	blt	800127e0 <sys_ipc_can_send+0xfc>
8001276c:	e59d0004 	ldr	r0, [sp, #4]
80012770:	e3a04000 	mov	r4, #0
80012774:	e59d3018 	ldr	r3, [sp, #24]
80012778:	e5804074 	str	r4, [r0, #116]	; 0x74
8001277c:	e3833e43 	orr	r3, r3, #1072	; 0x430
80012780:	e383300a 	orr	r3, r3, #10
80012784:	e580307c 	str	r3, [r0, #124]	; 0x7c
80012788:	e3a01001 	mov	r1, #1
8001278c:	ebffff65 	bl	80012528 <my_set_env_status>
80012790:	e1a00004 	mov	r0, r4
80012794:	e5952000 	ldr	r2, [r5]
80012798:	e59d3004 	ldr	r3, [sp, #4]
8001279c:	e592204c 	ldr	r2, [r2, #76]	; 0x4c
800127a0:	e583606c 	str	r6, [r3, #108]	; 0x6c
800127a4:	e5832070 	str	r2, [r3, #112]	; 0x70
800127a8:	e28dd008 	add	sp, sp, #8
800127ac:	e8bd8070 	pop	{r4, r5, r6, pc}
800127b0:	e59f0040 	ldr	r0, [pc, #64]	; 800127f8 <sys_ipc_can_send+0x114>
800127b4:	e1a01004 	mov	r1, r4
800127b8:	ebfffdd7 	bl	80011f1c <printf>
800127bc:	e3e00002 	mvn	r0, #2
800127c0:	eafffff8 	b	800127a8 <sys_ipc_can_send+0xc4>
800127c4:	e3e00005 	mvn	r0, #5
800127c8:	eafffff6 	b	800127a8 <sys_ipc_can_send+0xc4>
800127cc:	e59f0028 	ldr	r0, [pc, #40]	; 800127fc <sys_ipc_can_send+0x118>
800127d0:	e1a01005 	mov	r1, r5
800127d4:	ebfffdd0 	bl	80011f1c <printf>
800127d8:	e3e00002 	mvn	r0, #2
800127dc:	eafffff1 	b	800127a8 <sys_ipc_can_send+0xc4>
800127e0:	e59f0018 	ldr	r0, [pc, #24]	; 80012800 <sys_ipc_can_send+0x11c>
800127e4:	ebfffdcc 	bl	80011f1c <printf>
800127e8:	e3e00002 	mvn	r0, #2
800127ec:	eaffffed 	b	800127a8 <sys_ipc_can_send+0xc4>
800127f0:	7fcfffff 	.word	0x7fcfffff
800127f4:	8001800c 	.word	0x8001800c
800127f8:	80014f34 	.word	0x80014f34
800127fc:	80014f58 	.word	0x80014f58
80012800:	80014f8c 	.word	0x80014f8c

80012804 <svc_entry>:
80012804:	e59fd080 	ldr	sp, [pc, #128]	; 8001288c <svc_return+0x28>
80012808:	e92d5fff 	push	{r0, r1, r2, r3, r4, r5, r6, r7, r8, r9, sl, fp, ip, lr}
8001280c:	e10f7000 	mrs	r7, CPSR
80012810:	e3c7801f 	bic	r8, r7, #31
80012814:	e388801f 	orr	r8, r8, #31
80012818:	e121f008 	msr	CPSR_c, r8
8001281c:	e1a0400d 	mov	r4, sp
80012820:	e1a0500e 	mov	r5, lr
80012824:	e121f007 	msr	CPSR_c, r7
80012828:	e14f6000 	mrs	r6, SPSR
8001282c:	e92d0070 	push	{r4, r5, r6}
80012830:	e10f7000 	mrs	r7, CPSR
80012834:	e3c7801f 	bic	r8, r7, #31
80012838:	e388801f 	orr	r8, r8, #31
8001283c:	e121f008 	msr	CPSR_c, r8
80012840:	e89d0030 	ldm	sp, {r4, r5}
80012844:	e121f007 	msr	CPSR_c, r7
80012848:	e92d0030 	push	{r4, r5}
8001284c:	ebfffe00 	bl	80012054 <svc_call>
80012850:	e28dd008 	add	sp, sp, #8
80012854:	e1a0000d 	mov	r0, sp
80012858:	ebfffaad 	bl	80011314 <print_tf>
8001285c:	e58d000c 	str	r0, [sp, #12]
80012860:	eaffffff 	b	80012864 <svc_return>

80012864 <svc_return>:
80012864:	e8bd0070 	pop	{r4, r5, r6}
80012868:	e161f006 	msr	SPSR_c, r6
8001286c:	e10f7000 	mrs	r7, CPSR
80012870:	e3c7801f 	bic	r8, r7, #31
80012874:	e388801f 	orr	r8, r8, #31
80012878:	e121f008 	msr	CPSR_c, r8
8001287c:	e1a0d004 	mov	sp, r4
80012880:	e1a0e005 	mov	lr, r5
80012884:	e121f007 	msr	CPSR_c, r7
80012888:	e8dd9fff 	ldm	sp, {r0, r1, r2, r3, r4, r5, r6, r7, r8, r9, sl, fp, ip, pc}^
8001288c:	8000fff0 	.word	0x8000fff0

80012890 <trap_init>:
80012890:	e92d4010 	push	{r4, lr}
80012894:	e59f4074 	ldr	r4, [pc, #116]	; 80012910 <trap_init+0x80>
80012898:	e59f0074 	ldr	r0, [pc, #116]	; 80012914 <trap_init+0x84>
8001289c:	e5941000 	ldr	r1, [r4]
800128a0:	ebfffd9d 	bl	80011f1c <printf>
800128a4:	e59f306c 	ldr	r3, [pc, #108]	; 80012918 <trap_init+0x88>
800128a8:	e5940000 	ldr	r0, [r4]
800128ac:	e5931000 	ldr	r1, [r3]
800128b0:	e59f2064 	ldr	r2, [pc, #100]	; 8001291c <trap_init+0x8c>
800128b4:	e3a03000 	mov	r3, #0
800128b8:	eb0001a1 	bl	80012f44 <page_insert>
800128bc:	e3500000 	cmp	r0, #0
800128c0:	1a00000d 	bne	800128fc <trap_init+0x6c>
800128c4:	e3e03a0f 	mvn	r3, #61440	; 0xf000
800128c8:	e5941000 	ldr	r1, [r4]
800128cc:	e5132fff 	ldr	r2, [r3, #-4095]	; 0xfffff001
800128d0:	e59f0048 	ldr	r0, [pc, #72]	; 80012920 <trap_init+0x90>
800128d4:	ebfffd90 	bl	80011f1c <printf>
800128d8:	ebfff682 	bl	800102e8 <gicd_ctrl_enable>
800128dc:	ebfff6c8 	bl	80010404 <gicc_ctrl_enable>
800128e0:	e10f3000 	mrs	r3, CPSR
800128e4:	e3c33080 	bic	r3, r3, #128	; 0x80
800128e8:	e121f003 	msr	CPSR_c, r3
800128ec:	e10f1000 	mrs	r1, CPSR
800128f0:	e59f002c 	ldr	r0, [pc, #44]	; 80012924 <trap_init+0x94>
800128f4:	e8bd4010 	pop	{r4, lr}
800128f8:	eafffd87 	b	80011f1c <printf>
800128fc:	e59f3024 	ldr	r3, [pc, #36]	; 80012928 <trap_init+0x98>
80012900:	e59f2024 	ldr	r2, [pc, #36]	; 8001292c <trap_init+0x9c>
80012904:	e3a0100c 	mov	r1, #12
80012908:	e59f0020 	ldr	r0, [pc, #32]	; 80012930 <trap_init+0xa0>
8001290c:	ebfffd91 	bl	80011f58 <_panic>
80012910:	80018000 	.word	0x80018000
80012914:	80014fb0 	.word	0x80014fb0
80012918:	80024000 	.word	0x80024000
8001291c:	ffff0000 	.word	0xffff0000
80012920:	80014884 	.word	0x80014884
80012924:	80014fd0 	.word	0x80014fd0
80012928:	80014fc0 	.word	0x80014fc0
8001292c:	8001495c 	.word	0x8001495c
80012930:	80014fc8 	.word	0x80014fc8

80012934 <alloc.constprop.4>:
80012934:	e59f3050 	ldr	r3, [pc, #80]	; 8001298c <alloc.constprop.4+0x58>
80012938:	e92d4070 	push	{r4, r5, r6, lr}
8001293c:	e5934000 	ldr	r4, [r3]
80012940:	e1a02000 	mov	r2, r0
80012944:	e2844eff 	add	r4, r4, #4080	; 0xff0
80012948:	e284400f 	add	r4, r4, #15
8001294c:	e3c44eff 	bic	r4, r4, #4080	; 0xff0
80012950:	e3c4400f 	bic	r4, r4, #15
80012954:	e0845000 	add	r5, r4, r0
80012958:	e5835000 	str	r5, [r3]
8001295c:	e3a01000 	mov	r1, #0
80012960:	e1a00004 	mov	r0, r4
80012964:	e2855102 	add	r5, r5, #-2147483648	; 0x80000000
80012968:	ebfff621 	bl	800101f4 <memset>
8001296c:	e3750107 	cmn	r5, #-1073741823	; 0xc0000001
80012970:	8a000001 	bhi	8001297c <alloc.constprop.4+0x48>
80012974:	e1a00004 	mov	r0, r4
80012978:	e8bd8070 	pop	{r4, r5, r6, pc}
8001297c:	e59f200c 	ldr	r2, [pc, #12]	; 80012990 <alloc.constprop.4+0x5c>
80012980:	e3a01054 	mov	r1, #84	; 0x54
80012984:	e59f0008 	ldr	r0, [pc, #8]	; 80012994 <alloc.constprop.4+0x60>
80012988:	ebfffd72 	bl	80011f58 <_panic>
8001298c:	8001c000 	.word	0x8001c000
80012990:	80014fe8 	.word	0x80014fe8
80012994:	80014ff8 	.word	0x80014ff8

80012998 <init_boot_pgdir>:
80012998:	e3a03000 	mov	r3, #0
8001299c:	e1a01003 	mov	r1, r3
800129a0:	e59f004c 	ldr	r0, [pc, #76]	; 800129f4 <init_boot_pgdir+0x5c>
800129a4:	e1a02a23 	lsr	r2, r3, #20
800129a8:	e0802102 	add	r2, r0, r2, lsl #2
800129ac:	e2933601 	adds	r3, r3, #1048576	; 0x100000
800129b0:	e5821010 	str	r1, [r2, #16]
800129b4:	5afffffa 	bpl	800129a4 <init_boot_pgdir+0xc>
800129b8:	e3a02102 	mov	r2, #-2147483648	; 0x80000000
800129bc:	e59fc034 	ldr	ip, [pc, #52]	; 800129f8 <init_boot_pgdir+0x60>
800129c0:	e2823103 	add	r3, r2, #-1073741824	; 0xc0000000
800129c4:	e1a01a22 	lsr	r1, r2, #20
800129c8:	e20334ff 	and	r3, r3, #-16777216	; 0xff000000
800129cc:	e2822601 	add	r2, r2, #1048576	; 0x100000
800129d0:	e183300c 	orr	r3, r3, ip
800129d4:	e0801101 	add	r1, r0, r1, lsl #2
800129d8:	e3520103 	cmp	r2, #-1073741824	; 0xc0000000
800129dc:	e5813010 	str	r3, [r1, #16]
800129e0:	1afffff6 	bne	800129c0 <init_boot_pgdir+0x28>
800129e4:	e59f3010 	ldr	r3, [pc, #16]	; 800129fc <init_boot_pgdir+0x64>
800129e8:	e59f2010 	ldr	r2, [pc, #16]	; 80012a00 <init_boot_pgdir+0x68>
800129ec:	e5832010 	str	r2, [r3, #16]
800129f0:	e12fff1e 	bx	lr
800129f4:	8001fff0 	.word	0x8001fff0
800129f8:	0005040a 	.word	0x0005040a
800129fc:	80022ff0 	.word	0x80022ff0
80012a00:	01c10c06 	.word	0x01c10c06

80012a04 <armv7_detect_memory>:
80012a04:	e3a02701 	mov	r2, #262144	; 0x40000
80012a08:	e59f300c 	ldr	r3, [pc, #12]	; 80012a1c <armv7_detect_memory+0x18>
80012a0c:	e3a01b01 	mov	r1, #1024	; 0x400
80012a10:	e59f0008 	ldr	r0, [pc, #8]	; 80012a20 <armv7_detect_memory+0x1c>
80012a14:	e5832000 	str	r2, [r3]
80012a18:	eafffd3f 	b	80011f1c <printf>
80012a1c:	80024a6c 	.word	0x80024a6c
80012a20:	80015000 	.word	0x80015000

80012a24 <armv7_vm_init>:
80012a24:	e92d4010 	push	{r4, lr}
80012a28:	e59f4068 	ldr	r4, [pc, #104]	; 80012a98 <armv7_vm_init+0x74>
80012a2c:	e59f0068 	ldr	r0, [pc, #104]	; 80012a9c <armv7_vm_init+0x78>
80012a30:	e1a01004 	mov	r1, r4
80012a34:	ebfffd38 	bl	80011f1c <printf>
80012a38:	e59f2060 	ldr	r2, [pc, #96]	; 80012aa0 <armv7_vm_init+0x7c>
80012a3c:	e59f3060 	ldr	r3, [pc, #96]	; 80012aa4 <armv7_vm_init+0x80>
80012a40:	e5920000 	ldr	r0, [r2]
80012a44:	e5834000 	str	r4, [r3]
80012a48:	e0800080 	add	r0, r0, r0, lsl #1
80012a4c:	e1a00100 	lsl	r0, r0, #2
80012a50:	ebffffb7 	bl	80012934 <alloc.constprop.4>
80012a54:	e1a03000 	mov	r3, r0
80012a58:	e59f2048 	ldr	r2, [pc, #72]	; 80012aa8 <armv7_vm_init+0x84>
80012a5c:	e1a01000 	mov	r1, r0
80012a60:	e59f0044 	ldr	r0, [pc, #68]	; 80012aac <armv7_vm_init+0x88>
80012a64:	e5823020 	str	r3, [r2, #32]
80012a68:	ebfffd2b 	bl	80011f1c <printf>
80012a6c:	e3a00a23 	mov	r0, #143360	; 0x23000
80012a70:	ebffffaf 	bl	80012934 <alloc.constprop.4>
80012a74:	e1a03000 	mov	r3, r0
80012a78:	e59f2030 	ldr	r2, [pc, #48]	; 80012ab0 <armv7_vm_init+0x8c>
80012a7c:	e1a01000 	mov	r1, r0
80012a80:	e59f002c 	ldr	r0, [pc, #44]	; 80012ab4 <armv7_vm_init+0x90>
80012a84:	e5823000 	str	r3, [r2]
80012a88:	ebfffd23 	bl	80011f1c <printf>
80012a8c:	e8bd4010 	pop	{r4, lr}
80012a90:	e59f0020 	ldr	r0, [pc, #32]	; 80012ab8 <armv7_vm_init+0x94>
80012a94:	eafffd20 	b	80011f1c <printf>
80012a98:	80020000 	.word	0x80020000
80012a9c:	80015020 	.word	0x80015020
80012aa0:	80024a6c 	.word	0x80024a6c
80012aa4:	80018000 	.word	0x80018000
80012aa8:	80023fe0 	.word	0x80023fe0
80012aac:	8001503c 	.word	0x8001503c
80012ab0:	80018004 	.word	0x80018004
80012ab4:	8001505c 	.word	0x8001505c
80012ab8:	8001507c 	.word	0x8001507c

80012abc <page_init>:
80012abc:	e92d4070 	push	{r4, r5, r6, lr}
80012ac0:	e59f00d0 	ldr	r0, [pc, #208]	; 80012b98 <page_init+0xdc>
80012ac4:	ebfffd14 	bl	80011f1c <printf>
80012ac8:	e3a01000 	mov	r1, #0
80012acc:	e59f20c8 	ldr	r2, [pc, #200]	; 80012b9c <page_init+0xe0>
80012ad0:	e59f40c8 	ldr	r4, [pc, #200]	; 80012ba0 <page_init+0xe4>
80012ad4:	e5923000 	ldr	r3, [r2]
80012ad8:	e5841000 	str	r1, [r4]
80012adc:	e2833dff 	add	r3, r3, #16320	; 0x3fc0
80012ae0:	e283303f 	add	r3, r3, #63	; 0x3f
80012ae4:	e3c33dff 	bic	r3, r3, #16320	; 0x3fc0
80012ae8:	e3c3303f 	bic	r3, r3, #63	; 0x3f
80012aec:	e2831102 	add	r1, r3, #-2147483648	; 0x80000000
80012af0:	e1b01621 	lsrs	r1, r1, #12
80012af4:	e5823000 	str	r3, [r2]
80012af8:	0a000008 	beq	80012b20 <page_init+0x64>
80012afc:	e3a00001 	mov	r0, #1
80012b00:	e59f309c 	ldr	r3, [pc, #156]	; 80012ba4 <page_init+0xe8>
80012b04:	e0812011 	add	r2, r1, r1, lsl r0
80012b08:	e5933020 	ldr	r3, [r3, #32]
80012b0c:	e0832102 	add	r2, r3, r2, lsl #2
80012b10:	e1c300b8 	strh	r0, [r3, #8]
80012b14:	e283300c 	add	r3, r3, #12
80012b18:	e1530002 	cmp	r3, r2
80012b1c:	1afffffb 	bne	80012b10 <page_init+0x54>
80012b20:	e59f3080 	ldr	r3, [pc, #128]	; 80012ba8 <page_init+0xec>
80012b24:	e593c000 	ldr	ip, [r3]
80012b28:	e151000c 	cmp	r1, ip
80012b2c:	2a000016 	bcs	80012b8c <page_init+0xd0>
80012b30:	e3a05000 	mov	r5, #0
80012b34:	e3a06001 	mov	r6, #1
80012b38:	e1a00005 	mov	r0, r5
80012b3c:	e1a0e005 	mov	lr, r5
80012b40:	e59f205c 	ldr	r2, [pc, #92]	; 80012ba4 <page_init+0xe8>
80012b44:	e0813611 	add	r3, r1, r1, lsl r6
80012b48:	e5922020 	ldr	r2, [r2, #32]
80012b4c:	e0823103 	add	r3, r2, r3, lsl #2
80012b50:	e3110003 	tst	r1, #3
80012b54:	e1c3e0b8 	strh	lr, [r3, #8]
80012b58:	e2811001 	add	r1, r1, #1
80012b5c:	1a000005 	bne	80012b78 <page_init+0xbc>
80012b60:	e3500000 	cmp	r0, #0
80012b64:	e5830000 	str	r0, [r3]
80012b68:	e1a05006 	mov	r5, r6
80012b6c:	15803004 	strne	r3, [r0, #4]
80012b70:	e1a00003 	mov	r0, r3
80012b74:	e5834004 	str	r4, [r3, #4]
80012b78:	e151000c 	cmp	r1, ip
80012b7c:	e283300c 	add	r3, r3, #12
80012b80:	1afffff2 	bne	80012b50 <page_init+0x94>
80012b84:	e3550000 	cmp	r5, #0
80012b88:	15840000 	strne	r0, [r4]
80012b8c:	e59f0018 	ldr	r0, [pc, #24]	; 80012bac <page_init+0xf0>
80012b90:	e8bd4070 	pop	{r4, r5, r6, lr}
80012b94:	eafffce0 	b	80011f1c <printf>
80012b98:	8001509c 	.word	0x8001509c
80012b9c:	8001c000 	.word	0x8001c000
80012ba0:	80024a64 	.word	0x80024a64
80012ba4:	80023fe0 	.word	0x80023fe0
80012ba8:	80024a6c 	.word	0x80024a6c
80012bac:	800150b8 	.word	0x800150b8

80012bb0 <page_alloc>:
80012bb0:	e59f3094 	ldr	r3, [pc, #148]	; 80012c4c <page_alloc+0x9c>
80012bb4:	e5933000 	ldr	r3, [r3]
80012bb8:	e3530000 	cmp	r3, #0
80012bbc:	0a00001b 	beq	80012c30 <page_alloc+0x80>
80012bc0:	e92d4010 	push	{r4, lr}
80012bc4:	e5803000 	str	r3, [r0]
80012bc8:	e5932000 	ldr	r2, [r3]
80012bcc:	e3520000 	cmp	r2, #0
80012bd0:	15931004 	ldrne	r1, [r3, #4]
80012bd4:	15821004 	strne	r1, [r2, #4]
80012bd8:	e5930004 	ldr	r0, [r3, #4]
80012bdc:	e59f106c 	ldr	r1, [pc, #108]	; 80012c50 <page_alloc+0xa0>
80012be0:	e5802000 	str	r2, [r0]
80012be4:	e5911020 	ldr	r1, [r1, #32]
80012be8:	e59f2064 	ldr	r2, [pc, #100]	; 80012c54 <page_alloc+0xa4>
80012bec:	e0433001 	sub	r3, r3, r1
80012bf0:	e1a03143 	asr	r3, r3, #2
80012bf4:	e0830103 	add	r0, r3, r3, lsl #2
80012bf8:	e0800200 	add	r0, r0, r0, lsl #4
80012bfc:	e0800400 	add	r0, r0, r0, lsl #8
80012c00:	e0800800 	add	r0, r0, r0, lsl #16
80012c04:	e0833080 	add	r3, r3, r0, lsl #1
80012c08:	e5922000 	ldr	r2, [r2]
80012c0c:	e1a00603 	lsl	r0, r3, #12
80012c10:	e1520620 	cmp	r2, r0, lsr #12
80012c14:	9a000007 	bls	80012c38 <page_alloc+0x88>
80012c18:	e3a02a01 	mov	r2, #4096	; 0x1000
80012c1c:	e3a01000 	mov	r1, #0
80012c20:	e2800102 	add	r0, r0, #-2147483648	; 0x80000000
80012c24:	ebfff572 	bl	800101f4 <memset>
80012c28:	e3a00000 	mov	r0, #0
80012c2c:	e8bd8010 	pop	{r4, pc}
80012c30:	e3e00003 	mvn	r0, #3
80012c34:	e12fff1e 	bx	lr
80012c38:	e2803101 	add	r3, r0, #1073741824	; 0x40000000
80012c3c:	e59f2014 	ldr	r2, [pc, #20]	; 80012c58 <page_alloc+0xa8>
80012c40:	e3a0103b 	mov	r1, #59	; 0x3b
80012c44:	e59f0010 	ldr	r0, [pc, #16]	; 80012c5c <page_alloc+0xac>
80012c48:	ebfffcc2 	bl	80011f58 <_panic>
80012c4c:	80024a64 	.word	0x80024a64
80012c50:	80023fe0 	.word	0x80023fe0
80012c54:	80024a6c 	.word	0x80024a6c
80012c58:	800147f4 	.word	0x800147f4
80012c5c:	80014818 	.word	0x80014818

80012c60 <page_free>:
80012c60:	e1d030b8 	ldrh	r3, [r0, #8]
80012c64:	e3530000 	cmp	r3, #0
80012c68:	112fff1e 	bxne	lr
80012c6c:	e59f3018 	ldr	r3, [pc, #24]	; 80012c8c <page_free+0x2c>
80012c70:	e5932000 	ldr	r2, [r3]
80012c74:	e3520000 	cmp	r2, #0
80012c78:	e5802000 	str	r2, [r0]
80012c7c:	15820004 	strne	r0, [r2, #4]
80012c80:	e5830000 	str	r0, [r3]
80012c84:	e5803004 	str	r3, [r0, #4]
80012c88:	e12fff1e 	bx	lr
80012c8c:	80024a64 	.word	0x80024a64

80012c90 <page_decref>:
80012c90:	e2502000 	subs	r2, r0, #0
80012c94:	012fff1e 	bxeq	lr
80012c98:	e1d230b8 	ldrh	r3, [r2, #8]
80012c9c:	e2433001 	sub	r3, r3, #1
80012ca0:	e1a03803 	lsl	r3, r3, #16
80012ca4:	e1a03823 	lsr	r3, r3, #16
80012ca8:	e3530000 	cmp	r3, #0
80012cac:	e1c230b8 	strh	r3, [r2, #8]
80012cb0:	112fff1e 	bxne	lr
80012cb4:	eaffffe9 	b	80012c60 <page_free>

80012cb8 <pgdir_walk>:
80012cb8:	e92d40f0 	push	{r4, r5, r6, r7, lr}
80012cbc:	e59fc124 	ldr	ip, [pc, #292]	; 80012de8 <pgdir_walk+0x130>
80012cc0:	e281e102 	add	lr, r1, #-2147483648	; 0x80000000
80012cc4:	e15e000c 	cmp	lr, ip
80012cc8:	e24dd00c 	sub	sp, sp, #12
80012ccc:	9a00003a 	bls	80012dbc <pgdir_walk+0x104>
80012cd0:	e1a07a21 	lsr	r7, r1, #20
80012cd4:	e1a05003 	mov	r5, r3
80012cd8:	e7903107 	ldr	r3, [r0, r7, lsl #2]
80012cdc:	e1a06000 	mov	r6, r0
80012ce0:	e3530000 	cmp	r3, #0
80012ce4:	e1a04001 	mov	r4, r1
80012ce8:	0a000011 	beq	80012d34 <pgdir_walk+0x7c>
80012cec:	e59f10f8 	ldr	r1, [pc, #248]	; 80012dec <pgdir_walk+0x134>
80012cf0:	e3c3cfff 	bic	ip, r3, #1020	; 0x3fc
80012cf4:	e3ccc003 	bic	ip, ip, #3
80012cf8:	e5911000 	ldr	r1, [r1]
80012cfc:	e28c0103 	add	r0, ip, #-1073741824	; 0xc0000000
80012d00:	e1510620 	cmp	r1, r0, lsr #12
80012d04:	9a00002e 	bls	80012dc4 <pgdir_walk+0x10c>
80012d08:	e2033021 	and	r3, r3, #33	; 0x21
80012d0c:	e3530021 	cmp	r3, #33	; 0x21
80012d10:	028cc101 	addeq	ip, ip, #1073741824	; 0x40000000
80012d14:	1a000006 	bne	80012d34 <pgdir_walk+0x7c>
80012d18:	e3a00000 	mov	r0, #0
80012d1c:	e1a04524 	lsr	r4, r4, #10
80012d20:	e2044fff 	and	r4, r4, #1020	; 0x3fc
80012d24:	e08cc004 	add	ip, ip, r4
80012d28:	e585c000 	str	ip, [r5]
80012d2c:	e28dd00c 	add	sp, sp, #12
80012d30:	e8bd80f0 	pop	{r4, r5, r6, r7, pc}
80012d34:	e3520000 	cmp	r2, #0
80012d38:	05852000 	streq	r2, [r5]
80012d3c:	01a00002 	moveq	r0, r2
80012d40:	0afffff9 	beq	80012d2c <pgdir_walk+0x74>
80012d44:	e28d0004 	add	r0, sp, #4
80012d48:	ebffff98 	bl	80012bb0 <page_alloc>
80012d4c:	e3500000 	cmp	r0, #0
80012d50:	b3a03000 	movlt	r3, #0
80012d54:	b3e00003 	mvnlt	r0, #3
80012d58:	b5853000 	strlt	r3, [r5]
80012d5c:	bafffff2 	blt	80012d2c <pgdir_walk+0x74>
80012d60:	e59f3088 	ldr	r3, [pc, #136]	; 80012df0 <pgdir_walk+0x138>
80012d64:	e59d2004 	ldr	r2, [sp, #4]
80012d68:	e593c020 	ldr	ip, [r3, #32]
80012d6c:	e59f1078 	ldr	r1, [pc, #120]	; 80012dec <pgdir_walk+0x134>
80012d70:	e042c00c 	sub	ip, r2, ip
80012d74:	e1a0c14c 	asr	ip, ip, #2
80012d78:	e08c310c 	add	r3, ip, ip, lsl #2
80012d7c:	e0833203 	add	r3, r3, r3, lsl #4
80012d80:	e0833403 	add	r3, r3, r3, lsl #8
80012d84:	e0833803 	add	r3, r3, r3, lsl #16
80012d88:	e08cc083 	add	ip, ip, r3, lsl #1
80012d8c:	e5913000 	ldr	r3, [r1]
80012d90:	e1a0c60c 	lsl	ip, ip, #12
80012d94:	e153062c 	cmp	r3, ip, lsr #12
80012d98:	e28c3101 	add	r3, ip, #1073741824	; 0x40000000
80012d9c:	9a00000d 	bls	80012dd8 <pgdir_walk+0x120>
80012da0:	e1d210b8 	ldrh	r1, [r2, #8]
80012da4:	e3833021 	orr	r3, r3, #33	; 0x21
80012da8:	e2811001 	add	r1, r1, #1
80012dac:	e7863107 	str	r3, [r6, r7, lsl #2]
80012db0:	e28cc102 	add	ip, ip, #-2147483648	; 0x80000000
80012db4:	e1c210b8 	strh	r1, [r2, #8]
80012db8:	eaffffd6 	b	80012d18 <pgdir_walk+0x60>
80012dbc:	e3e00002 	mvn	r0, #2
80012dc0:	eaffffd9 	b	80012d2c <pgdir_walk+0x74>
80012dc4:	e1a0300c 	mov	r3, ip
80012dc8:	e59f2024 	ldr	r2, [pc, #36]	; 80012df4 <pgdir_walk+0x13c>
80012dcc:	e59f1024 	ldr	r1, [pc, #36]	; 80012df8 <pgdir_walk+0x140>
80012dd0:	e59f0024 	ldr	r0, [pc, #36]	; 80012dfc <pgdir_walk+0x144>
80012dd4:	ebfffc5f 	bl	80011f58 <_panic>
80012dd8:	e59f2014 	ldr	r2, [pc, #20]	; 80012df4 <pgdir_walk+0x13c>
80012ddc:	e3a0103b 	mov	r1, #59	; 0x3b
80012de0:	e59f0018 	ldr	r0, [pc, #24]	; 80012e00 <pgdir_walk+0x148>
80012de4:	ebfffc5b 	bl	80011f58 <_panic>
80012de8:	400fffff 	.word	0x400fffff
80012dec:	80024a6c 	.word	0x80024a6c
80012df0:	80023fe0 	.word	0x80023fe0
80012df4:	800147f4 	.word	0x800147f4
80012df8:	00000131 	.word	0x00000131
80012dfc:	80014ff8 	.word	0x80014ff8
80012e00:	80014818 	.word	0x80014818

80012e04 <page_lookup>:
80012e04:	e59f3098 	ldr	r3, [pc, #152]	; 80012ea4 <page_lookup+0xa0>
80012e08:	e281c102 	add	ip, r1, #-2147483648	; 0x80000000
80012e0c:	e15c0003 	cmp	ip, r3
80012e10:	9a00001b 	bls	80012e84 <page_lookup+0x80>
80012e14:	e92d4010 	push	{r4, lr}
80012e18:	e24dd008 	sub	sp, sp, #8
80012e1c:	e1a04002 	mov	r4, r2
80012e20:	e28d3004 	add	r3, sp, #4
80012e24:	e3a02000 	mov	r2, #0
80012e28:	ebffffa2 	bl	80012cb8 <pgdir_walk>
80012e2c:	e59d1004 	ldr	r1, [sp, #4]
80012e30:	e3510000 	cmp	r1, #0
80012e34:	0a000014 	beq	80012e8c <page_lookup+0x88>
80012e38:	e5913000 	ldr	r3, [r1]
80012e3c:	e59f2064 	ldr	r2, [pc, #100]	; 80012ea8 <page_lookup+0xa4>
80012e40:	e0022003 	and	r2, r2, r3
80012e44:	e3520000 	cmp	r2, #0
80012e48:	0a00000f 	beq	80012e8c <page_lookup+0x88>
80012e4c:	e59f2058 	ldr	r2, [pc, #88]	; 80012eac <page_lookup+0xa8>
80012e50:	e2830103 	add	r0, r3, #-1073741824	; 0xc0000000
80012e54:	e5922000 	ldr	r2, [r2]
80012e58:	e1a00620 	lsr	r0, r0, #12
80012e5c:	e1500002 	cmp	r0, r2
80012e60:	2a00000b 	bcs	80012e94 <page_lookup+0x90>
80012e64:	e59f3044 	ldr	r3, [pc, #68]	; 80012eb0 <page_lookup+0xac>
80012e68:	e0800080 	add	r0, r0, r0, lsl #1
80012e6c:	e5933020 	ldr	r3, [r3, #32]
80012e70:	e3540000 	cmp	r4, #0
80012e74:	e0830100 	add	r0, r3, r0, lsl #2
80012e78:	15841000 	strne	r1, [r4]
80012e7c:	e28dd008 	add	sp, sp, #8
80012e80:	e8bd8010 	pop	{r4, pc}
80012e84:	e3a00000 	mov	r0, #0
80012e88:	e12fff1e 	bx	lr
80012e8c:	e3a00000 	mov	r0, #0
80012e90:	eafffff9 	b	80012e7c <page_lookup+0x78>
80012e94:	e59f2018 	ldr	r2, [pc, #24]	; 80012eb4 <page_lookup+0xb0>
80012e98:	e3a01030 	mov	r1, #48	; 0x30
80012e9c:	e59f0014 	ldr	r0, [pc, #20]	; 80012eb8 <page_lookup+0xb4>
80012ea0:	ebfffc2c 	bl	80011f58 <_panic>
80012ea4:	400fffff 	.word	0x400fffff
80012ea8:	0000042a 	.word	0x0000042a
80012eac:	80024a6c 	.word	0x80024a6c
80012eb0:	80023fe0 	.word	0x80023fe0
80012eb4:	8001490c 	.word	0x8001490c
80012eb8:	80014818 	.word	0x80014818

80012ebc <page_remove.part.3>:
80012ebc:	e92d4030 	push	{r4, r5, lr}
80012ec0:	e24dd00c 	sub	sp, sp, #12
80012ec4:	e28d2004 	add	r2, sp, #4
80012ec8:	e1a05000 	mov	r5, r0
80012ecc:	e1a04001 	mov	r4, r1
80012ed0:	ebffffcb 	bl	80012e04 <page_lookup>
80012ed4:	e2502000 	subs	r2, r0, #0
80012ed8:	0a000014 	beq	80012f30 <page_remove.part.3+0x74>
80012edc:	e1d230b8 	ldrh	r3, [r2, #8]
80012ee0:	e2433001 	sub	r3, r3, #1
80012ee4:	e1a03803 	lsl	r3, r3, #16
80012ee8:	e1a03823 	lsr	r3, r3, #16
80012eec:	e3530000 	cmp	r3, #0
80012ef0:	e1c230b8 	strh	r3, [r2, #8]
80012ef4:	0a00000f 	beq	80012f38 <page_remove.part.3+0x7c>
80012ef8:	e3a00000 	mov	r0, #0
80012efc:	e59f303c 	ldr	r3, [pc, #60]	; 80012f40 <page_remove.part.3+0x84>
80012f00:	e59d2004 	ldr	r2, [sp, #4]
80012f04:	e5933000 	ldr	r3, [r3]
80012f08:	e3c41eff 	bic	r1, r4, #4080	; 0xff0
80012f0c:	e1530000 	cmp	r3, r0
80012f10:	e3c1100f 	bic	r1, r1, #15
80012f14:	e5820000 	str	r0, [r2]
80012f18:	0a000003 	beq	80012f2c <page_remove.part.3+0x70>
80012f1c:	e5932058 	ldr	r2, [r3, #88]	; 0x58
80012f20:	e1550002 	cmp	r5, r2
80012f24:	05d3304c 	ldrbeq	r3, [r3, #76]	; 0x4c
80012f28:	01811003 	orreq	r1, r1, r3
80012f2c:	ee081f17 	mcr	15, 0, r1, cr8, cr7, {0}
80012f30:	e28dd00c 	add	sp, sp, #12
80012f34:	e8bd8030 	pop	{r4, r5, pc}
80012f38:	ebffff48 	bl	80012c60 <page_free>
80012f3c:	eaffffed 	b	80012ef8 <page_remove.part.3+0x3c>
80012f40:	8001800c 	.word	0x8001800c

80012f44 <page_insert>:
80012f44:	e92d41f0 	push	{r4, r5, r6, r7, r8, lr}
80012f48:	e59fc19c 	ldr	ip, [pc, #412]	; 800130ec <page_insert+0x1a8>
80012f4c:	e282e102 	add	lr, r2, #-2147483648	; 0x80000000
80012f50:	e15e000c 	cmp	lr, ip
80012f54:	e24dd008 	sub	sp, sp, #8
80012f58:	9a000045 	bls	80013074 <page_insert+0x130>
80012f5c:	e1a06002 	mov	r6, r2
80012f60:	e1a04003 	mov	r4, r3
80012f64:	e1a05001 	mov	r5, r1
80012f68:	e28d3004 	add	r3, sp, #4
80012f6c:	e1a01006 	mov	r1, r6
80012f70:	e3a02000 	mov	r2, #0
80012f74:	e1a07000 	mov	r7, r0
80012f78:	ebffff4e 	bl	80012cb8 <pgdir_walk>
80012f7c:	e59d1004 	ldr	r1, [sp, #4]
80012f80:	e59f8168 	ldr	r8, [pc, #360]	; 800130f0 <page_insert+0x1ac>
80012f84:	e3510000 	cmp	r1, #0
80012f88:	e1844008 	orr	r4, r4, r8
80012f8c:	0a000002 	beq	80012f9c <page_insert+0x58>
80012f90:	e5913000 	ldr	r3, [r1]
80012f94:	e1130008 	tst	r3, r8
80012f98:	1a000025 	bne	80013034 <page_insert+0xf0>
80012f9c:	e59f2150 	ldr	r2, [pc, #336]	; 800130f4 <page_insert+0x1b0>
80012fa0:	e3c63eff 	bic	r3, r6, #4080	; 0xff0
80012fa4:	e5922000 	ldr	r2, [r2]
80012fa8:	e3c3300f 	bic	r3, r3, #15
80012fac:	e3520000 	cmp	r2, #0
80012fb0:	0a000003 	beq	80012fc4 <page_insert+0x80>
80012fb4:	e5921058 	ldr	r1, [r2, #88]	; 0x58
80012fb8:	e1570001 	cmp	r7, r1
80012fbc:	05d2204c 	ldrbeq	r2, [r2, #76]	; 0x4c
80012fc0:	01833002 	orreq	r3, r3, r2
80012fc4:	ee083f17 	mcr	15, 0, r3, cr8, cr7, {0}
80012fc8:	e3a02001 	mov	r2, #1
80012fcc:	e28d3004 	add	r3, sp, #4
80012fd0:	e1a01006 	mov	r1, r6
80012fd4:	e1a00007 	mov	r0, r7
80012fd8:	ebffff36 	bl	80012cb8 <pgdir_walk>
80012fdc:	e3500000 	cmp	r0, #0
80012fe0:	ba000011 	blt	8001302c <page_insert+0xe8>
80012fe4:	e59f310c 	ldr	r3, [pc, #268]	; 800130f8 <page_insert+0x1b4>
80012fe8:	e59d0004 	ldr	r0, [sp, #4]
80012fec:	e5932020 	ldr	r2, [r3, #32]
80012ff0:	e1d510b8 	ldrh	r1, [r5, #8]
80012ff4:	e0452002 	sub	r2, r5, r2
80012ff8:	e1a02142 	asr	r2, r2, #2
80012ffc:	e0823102 	add	r3, r2, r2, lsl #2
80013000:	e0833203 	add	r3, r3, r3, lsl #4
80013004:	e0833403 	add	r3, r3, r3, lsl #8
80013008:	e0833803 	add	r3, r3, r3, lsl #16
8001300c:	e0822083 	add	r2, r2, r3, lsl #1
80013010:	e1a02602 	lsl	r2, r2, #12
80013014:	e2822101 	add	r2, r2, #1073741824	; 0x40000000
80013018:	e1822004 	orr	r2, r2, r4
8001301c:	e5802000 	str	r2, [r0]
80013020:	e3a00000 	mov	r0, #0
80013024:	e2811001 	add	r1, r1, #1
80013028:	e1c510b8 	strh	r1, [r5, #8]
8001302c:	e28dd008 	add	sp, sp, #8
80013030:	e8bd81f0 	pop	{r4, r5, r6, r7, r8, pc}
80013034:	e59f00c0 	ldr	r0, [pc, #192]	; 800130fc <page_insert+0x1b8>
80013038:	e2832103 	add	r2, r3, #-1073741824	; 0xc0000000
8001303c:	e5900000 	ldr	r0, [r0]
80013040:	e1a02622 	lsr	r2, r2, #12
80013044:	e1500002 	cmp	r0, r2
80013048:	9a000023 	bls	800130dc <page_insert+0x198>
8001304c:	e59f30a4 	ldr	r3, [pc, #164]	; 800130f8 <page_insert+0x1b4>
80013050:	e0822082 	add	r2, r2, r2, lsl #1
80013054:	e5933020 	ldr	r3, [r3, #32]
80013058:	e0832102 	add	r2, r3, r2, lsl #2
8001305c:	e1550002 	cmp	r5, r2
80013060:	0a000005 	beq	8001307c <page_insert+0x138>
80013064:	e1a01006 	mov	r1, r6
80013068:	e1a00007 	mov	r0, r7
8001306c:	ebffff92 	bl	80012ebc <page_remove.part.3>
80013070:	eaffffc9 	b	80012f9c <page_insert+0x58>
80013074:	e3e00002 	mvn	r0, #2
80013078:	eaffffeb 	b	8001302c <page_insert+0xe8>
8001307c:	e59f2070 	ldr	r2, [pc, #112]	; 800130f4 <page_insert+0x1b0>
80013080:	e3c66eff 	bic	r6, r6, #4080	; 0xff0
80013084:	e5922000 	ldr	r2, [r2]
80013088:	e3c6600f 	bic	r6, r6, #15
8001308c:	e3520000 	cmp	r2, #0
80013090:	0a000003 	beq	800130a4 <page_insert+0x160>
80013094:	e5920058 	ldr	r0, [r2, #88]	; 0x58
80013098:	e1570000 	cmp	r7, r0
8001309c:	05d2204c 	ldrbeq	r2, [r2, #76]	; 0x4c
800130a0:	01866002 	orreq	r6, r6, r2
800130a4:	ee086f17 	mcr	15, 0, r6, cr8, cr7, {0}
800130a8:	e0453003 	sub	r3, r5, r3
800130ac:	e1a03143 	asr	r3, r3, #2
800130b0:	e0832103 	add	r2, r3, r3, lsl #2
800130b4:	e0822202 	add	r2, r2, r2, lsl #4
800130b8:	e0822402 	add	r2, r2, r2, lsl #8
800130bc:	e0822802 	add	r2, r2, r2, lsl #16
800130c0:	e0833082 	add	r3, r3, r2, lsl #1
800130c4:	e1a03603 	lsl	r3, r3, #12
800130c8:	e2833101 	add	r3, r3, #1073741824	; 0x40000000
800130cc:	e1834004 	orr	r4, r3, r4
800130d0:	e5814000 	str	r4, [r1]
800130d4:	e3a00000 	mov	r0, #0
800130d8:	eaffffd3 	b	8001302c <page_insert+0xe8>
800130dc:	e59f201c 	ldr	r2, [pc, #28]	; 80013100 <page_insert+0x1bc>
800130e0:	e3a01030 	mov	r1, #48	; 0x30
800130e4:	e59f0018 	ldr	r0, [pc, #24]	; 80013104 <page_insert+0x1c0>
800130e8:	ebfffb9a 	bl	80011f58 <_panic>
800130ec:	400fffff 	.word	0x400fffff
800130f0:	0000042a 	.word	0x0000042a
800130f4:	8001800c 	.word	0x8001800c
800130f8:	80023fe0 	.word	0x80023fe0
800130fc:	80024a6c 	.word	0x80024a6c
80013100:	8001490c 	.word	0x8001490c
80013104:	80014818 	.word	0x80014818

80013108 <page_remove>:
80013108:	e59f300c 	ldr	r3, [pc, #12]	; 8001311c <page_remove+0x14>
8001310c:	e2812102 	add	r2, r1, #-2147483648	; 0x80000000
80013110:	e1520003 	cmp	r2, r3
80013114:	912fff1e 	bxls	lr
80013118:	eaffff67 	b	80012ebc <page_remove.part.3>
8001311c:	400fffff 	.word	0x400fffff

80013120 <tlb_invalidate>:
80013120:	e59f3028 	ldr	r3, [pc, #40]	; 80013150 <tlb_invalidate+0x30>
80013124:	e3c11eff 	bic	r1, r1, #4080	; 0xff0
80013128:	e5933000 	ldr	r3, [r3]
8001312c:	e3c1100f 	bic	r1, r1, #15
80013130:	e3530000 	cmp	r3, #0
80013134:	0a000003 	beq	80013148 <tlb_invalidate+0x28>
80013138:	e5932058 	ldr	r2, [r3, #88]	; 0x58
8001313c:	e1520000 	cmp	r2, r0
80013140:	05d3304c 	ldrbeq	r3, [r3, #76]	; 0x4c
80013144:	01811003 	orreq	r1, r1, r3
80013148:	ee081f17 	mcr	15, 0, r1, cr8, cr7, {0}
8001314c:	e12fff1e 	bx	lr
80013150:	8001800c 	.word	0x8001800c

80013154 <physical_memory_manage_check>:
80013154:	e3a03000 	mov	r3, #0
80013158:	e92d43f0 	push	{r4, r5, r6, r7, r8, r9, lr}
8001315c:	e24dd014 	sub	sp, sp, #20
80013160:	e28d7010 	add	r7, sp, #16
80013164:	e527300c 	str	r3, [r7, #-12]!
80013168:	e1a00007 	mov	r0, r7
8001316c:	e58d300c 	str	r3, [sp, #12]
80013170:	e58d3008 	str	r3, [sp, #8]
80013174:	ebfffe8d 	bl	80012bb0 <page_alloc>
80013178:	e3500000 	cmp	r0, #0
8001317c:	1a000070 	bne	80013344 <physical_memory_manage_check+0x1f0>
80013180:	e28d0008 	add	r0, sp, #8
80013184:	ebfffe89 	bl	80012bb0 <page_alloc>
80013188:	e3500000 	cmp	r0, #0
8001318c:	1a000067 	bne	80013330 <physical_memory_manage_check+0x1dc>
80013190:	e28d000c 	add	r0, sp, #12
80013194:	ebfffe85 	bl	80012bb0 <page_alloc>
80013198:	e3500000 	cmp	r0, #0
8001319c:	1a00005e 	bne	8001331c <physical_memory_manage_check+0x1c8>
800131a0:	e59d2004 	ldr	r2, [sp, #4]
800131a4:	e3520000 	cmp	r2, #0
800131a8:	0a000056 	beq	80013308 <physical_memory_manage_check+0x1b4>
800131ac:	e59d3008 	ldr	r3, [sp, #8]
800131b0:	e3530000 	cmp	r3, #0
800131b4:	11520003 	cmpne	r2, r3
800131b8:	0a00004d 	beq	800132f4 <physical_memory_manage_check+0x1a0>
800131bc:	e59d100c 	ldr	r1, [sp, #12]
800131c0:	e3510000 	cmp	r1, #0
800131c4:	11530001 	cmpne	r3, r1
800131c8:	03a03001 	moveq	r3, #1
800131cc:	13a03000 	movne	r3, #0
800131d0:	e1520001 	cmp	r2, r1
800131d4:	03833001 	orreq	r3, r3, #1
800131d8:	e3530000 	cmp	r3, #0
800131dc:	1a00003f 	bne	800132e0 <physical_memory_manage_check+0x18c>
800131e0:	e59f51fc 	ldr	r5, [pc, #508]	; 800133e4 <physical_memory_manage_check+0x290>
800131e4:	e1a0000d 	mov	r0, sp
800131e8:	e5956000 	ldr	r6, [r5]
800131ec:	e5853000 	str	r3, [r5]
800131f0:	ebfffe6e 	bl	80012bb0 <page_alloc>
800131f4:	e3700004 	cmn	r0, #4
800131f8:	1a000074 	bne	800133d0 <physical_memory_manage_check+0x27c>
800131fc:	e59f91e4 	ldr	r9, [pc, #484]	; 800133e8 <physical_memory_manage_check+0x294>
80013200:	e59d0004 	ldr	r0, [sp, #4]
80013204:	e5993020 	ldr	r3, [r9, #32]
80013208:	e59f81dc 	ldr	r8, [pc, #476]	; 800133ec <physical_memory_manage_check+0x298>
8001320c:	e0403003 	sub	r3, r0, r3
80013210:	e1a03143 	asr	r3, r3, #2
80013214:	e0834103 	add	r4, r3, r3, lsl #2
80013218:	e0844204 	add	r4, r4, r4, lsl #4
8001321c:	e0844404 	add	r4, r4, r4, lsl #8
80013220:	e0844804 	add	r4, r4, r4, lsl #16
80013224:	e0834084 	add	r4, r3, r4, lsl #1
80013228:	e5983000 	ldr	r3, [r8]
8001322c:	e1a04604 	lsl	r4, r4, #12
80013230:	e1530624 	cmp	r3, r4, lsr #12
80013234:	9a000060 	bls	800133bc <physical_memory_manage_check+0x268>
80013238:	e3a03ffa 	mov	r3, #1000	; 0x3e8
8001323c:	e2844102 	add	r4, r4, #-2147483648	; 0x80000000
80013240:	e5843000 	str	r3, [r4]
80013244:	ebfffe85 	bl	80012c60 <page_free>
80013248:	e5941000 	ldr	r1, [r4]
8001324c:	e59f019c 	ldr	r0, [pc, #412]	; 800133f0 <physical_memory_manage_check+0x29c>
80013250:	ebfffb31 	bl	80011f1c <printf>
80013254:	e1a00007 	mov	r0, r7
80013258:	ebfffe54 	bl	80012bb0 <page_alloc>
8001325c:	e3500000 	cmp	r0, #0
80013260:	1a000050 	bne	800133a8 <physical_memory_manage_check+0x254>
80013264:	e59d0004 	ldr	r0, [sp, #4]
80013268:	e3500000 	cmp	r0, #0
8001326c:	0a000048 	beq	80013394 <physical_memory_manage_check+0x240>
80013270:	e5993020 	ldr	r3, [r9, #32]
80013274:	e5981000 	ldr	r1, [r8]
80013278:	e0403003 	sub	r3, r0, r3
8001327c:	e1a03143 	asr	r3, r3, #2
80013280:	e0832103 	add	r2, r3, r3, lsl #2
80013284:	e0822202 	add	r2, r2, r2, lsl #4
80013288:	e0822402 	add	r2, r2, r2, lsl #8
8001328c:	e0822802 	add	r2, r2, r2, lsl #16
80013290:	e0833082 	add	r3, r3, r2, lsl #1
80013294:	e1a03603 	lsl	r3, r3, #12
80013298:	e1510623 	cmp	r1, r3, lsr #12
8001329c:	9a000037 	bls	80013380 <physical_memory_manage_check+0x22c>
800132a0:	e2833102 	add	r3, r3, #-2147483648	; 0x80000000
800132a4:	e1540003 	cmp	r4, r3
800132a8:	1a00002f 	bne	8001336c <physical_memory_manage_check+0x218>
800132ac:	e5943000 	ldr	r3, [r4]
800132b0:	e3530000 	cmp	r3, #0
800132b4:	1a000027 	bne	80013358 <physical_memory_manage_check+0x204>
800132b8:	e5856000 	str	r6, [r5]
800132bc:	ebfffe67 	bl	80012c60 <page_free>
800132c0:	e59d0008 	ldr	r0, [sp, #8]
800132c4:	ebfffe65 	bl	80012c60 <page_free>
800132c8:	e59d000c 	ldr	r0, [sp, #12]
800132cc:	ebfffe63 	bl	80012c60 <page_free>
800132d0:	e59f011c 	ldr	r0, [pc, #284]	; 800133f4 <physical_memory_manage_check+0x2a0>
800132d4:	ebfffb10 	bl	80011f1c <printf>
800132d8:	e28dd014 	add	sp, sp, #20
800132dc:	e8bd83f0 	pop	{r4, r5, r6, r7, r8, r9, pc}
800132e0:	e59f3110 	ldr	r3, [pc, #272]	; 800133f8 <physical_memory_manage_check+0x2a4>
800132e4:	e59f2110 	ldr	r2, [pc, #272]	; 800133fc <physical_memory_manage_check+0x2a8>
800132e8:	e3a01f79 	mov	r1, #484	; 0x1e4
800132ec:	e59f010c 	ldr	r0, [pc, #268]	; 80013400 <physical_memory_manage_check+0x2ac>
800132f0:	ebfffb18 	bl	80011f58 <_panic>
800132f4:	e59f3108 	ldr	r3, [pc, #264]	; 80013404 <physical_memory_manage_check+0x2b0>
800132f8:	e59f20fc 	ldr	r2, [pc, #252]	; 800133fc <physical_memory_manage_check+0x2a8>
800132fc:	e59f1104 	ldr	r1, [pc, #260]	; 80013408 <physical_memory_manage_check+0x2b4>
80013300:	e59f00f8 	ldr	r0, [pc, #248]	; 80013400 <physical_memory_manage_check+0x2ac>
80013304:	ebfffb13 	bl	80011f58 <_panic>
80013308:	e59f30fc 	ldr	r3, [pc, #252]	; 8001340c <physical_memory_manage_check+0x2b8>
8001330c:	e59f20e8 	ldr	r2, [pc, #232]	; 800133fc <physical_memory_manage_check+0x2a8>
80013310:	e59f10f8 	ldr	r1, [pc, #248]	; 80013410 <physical_memory_manage_check+0x2bc>
80013314:	e59f00e4 	ldr	r0, [pc, #228]	; 80013400 <physical_memory_manage_check+0x2ac>
80013318:	ebfffb0e 	bl	80011f58 <_panic>
8001331c:	e59f30f0 	ldr	r3, [pc, #240]	; 80013414 <physical_memory_manage_check+0x2c0>
80013320:	e59f20d4 	ldr	r2, [pc, #212]	; 800133fc <physical_memory_manage_check+0x2a8>
80013324:	e3a01e1e 	mov	r1, #480	; 0x1e0
80013328:	e59f00d0 	ldr	r0, [pc, #208]	; 80013400 <physical_memory_manage_check+0x2ac>
8001332c:	ebfffb09 	bl	80011f58 <_panic>
80013330:	e59f30e0 	ldr	r3, [pc, #224]	; 80013418 <physical_memory_manage_check+0x2c4>
80013334:	e59f20c0 	ldr	r2, [pc, #192]	; 800133fc <physical_memory_manage_check+0x2a8>
80013338:	e59f10dc 	ldr	r1, [pc, #220]	; 8001341c <physical_memory_manage_check+0x2c8>
8001333c:	e59f00bc 	ldr	r0, [pc, #188]	; 80013400 <physical_memory_manage_check+0x2ac>
80013340:	ebfffb04 	bl	80011f58 <_panic>
80013344:	e59f30d4 	ldr	r3, [pc, #212]	; 80013420 <physical_memory_manage_check+0x2cc>
80013348:	e59f20ac 	ldr	r2, [pc, #172]	; 800133fc <physical_memory_manage_check+0x2a8>
8001334c:	e59f10d0 	ldr	r1, [pc, #208]	; 80013424 <physical_memory_manage_check+0x2d0>
80013350:	e59f00a8 	ldr	r0, [pc, #168]	; 80013400 <physical_memory_manage_check+0x2ac>
80013354:	ebfffaff 	bl	80011f58 <_panic>
80013358:	e59f30c8 	ldr	r3, [pc, #200]	; 80013428 <physical_memory_manage_check+0x2d4>
8001335c:	e59f2098 	ldr	r2, [pc, #152]	; 800133fc <physical_memory_manage_check+0x2a8>
80013360:	e59f10c4 	ldr	r1, [pc, #196]	; 8001342c <physical_memory_manage_check+0x2d8>
80013364:	e59f0094 	ldr	r0, [pc, #148]	; 80013400 <physical_memory_manage_check+0x2ac>
80013368:	ebfffafa 	bl	80011f58 <_panic>
8001336c:	e59f30bc 	ldr	r3, [pc, #188]	; 80013430 <physical_memory_manage_check+0x2dc>
80013370:	e59f2084 	ldr	r2, [pc, #132]	; 800133fc <physical_memory_manage_check+0x2a8>
80013374:	e59f10b8 	ldr	r1, [pc, #184]	; 80013434 <physical_memory_manage_check+0x2e0>
80013378:	e59f0080 	ldr	r0, [pc, #128]	; 80013400 <physical_memory_manage_check+0x2ac>
8001337c:	ebfffaf5 	bl	80011f58 <_panic>
80013380:	e2833101 	add	r3, r3, #1073741824	; 0x40000000
80013384:	e59f20ac 	ldr	r2, [pc, #172]	; 80013438 <physical_memory_manage_check+0x2e4>
80013388:	e3a0103b 	mov	r1, #59	; 0x3b
8001338c:	e59f00a8 	ldr	r0, [pc, #168]	; 8001343c <physical_memory_manage_check+0x2e8>
80013390:	ebfffaf0 	bl	80011f58 <_panic>
80013394:	e59f3070 	ldr	r3, [pc, #112]	; 8001340c <physical_memory_manage_check+0x2b8>
80013398:	e59f205c 	ldr	r2, [pc, #92]	; 800133fc <physical_memory_manage_check+0x2a8>
8001339c:	e3a01f7e 	mov	r1, #504	; 0x1f8
800133a0:	e59f0058 	ldr	r0, [pc, #88]	; 80013400 <physical_memory_manage_check+0x2ac>
800133a4:	ebfffaeb 	bl	80011f58 <_panic>
800133a8:	e59f3070 	ldr	r3, [pc, #112]	; 80013420 <physical_memory_manage_check+0x2cc>
800133ac:	e59f2048 	ldr	r2, [pc, #72]	; 800133fc <physical_memory_manage_check+0x2a8>
800133b0:	e59f1088 	ldr	r1, [pc, #136]	; 80013440 <physical_memory_manage_check+0x2ec>
800133b4:	e59f0044 	ldr	r0, [pc, #68]	; 80013400 <physical_memory_manage_check+0x2ac>
800133b8:	ebfffae6 	bl	80011f58 <_panic>
800133bc:	e2843101 	add	r3, r4, #1073741824	; 0x40000000
800133c0:	e59f2070 	ldr	r2, [pc, #112]	; 80013438 <physical_memory_manage_check+0x2e4>
800133c4:	e3a0103b 	mov	r1, #59	; 0x3b
800133c8:	e59f006c 	ldr	r0, [pc, #108]	; 8001343c <physical_memory_manage_check+0x2e8>
800133cc:	ebfffae1 	bl	80011f58 <_panic>
800133d0:	e59f306c 	ldr	r3, [pc, #108]	; 80013444 <physical_memory_manage_check+0x2f0>
800133d4:	e59f2020 	ldr	r2, [pc, #32]	; 800133fc <physical_memory_manage_check+0x2a8>
800133d8:	e59f1068 	ldr	r1, [pc, #104]	; 80013448 <physical_memory_manage_check+0x2f4>
800133dc:	e59f001c 	ldr	r0, [pc, #28]	; 80013400 <physical_memory_manage_check+0x2ac>
800133e0:	ebfffadc 	bl	80011f58 <_panic>
800133e4:	80024a64 	.word	0x80024a64
800133e8:	80023fe0 	.word	0x80023fe0
800133ec:	80024a6c 	.word	0x80024a6c
800133f0:	8001516c 	.word	0x8001516c
800133f4:	800151b8 	.word	0x800151b8
800133f8:	8001512c 	.word	0x8001512c
800133fc:	8001495c 	.word	0x8001495c
80013400:	80014ff8 	.word	0x80014ff8
80013404:	80015118 	.word	0x80015118
80013408:	000001e3 	.word	0x000001e3
8001340c:	80015148 	.word	0x80015148
80013410:	000001e2 	.word	0x000001e2
80013414:	80015100 	.word	0x80015100
80013418:	800150e8 	.word	0x800150e8
8001341c:	000001df 	.word	0x000001df
80013420:	800150d0 	.word	0x800150d0
80013424:	000001de 	.word	0x000001de
80013428:	800151ac 	.word	0x800151ac
8001342c:	000001fd 	.word	0x000001fd
80013430:	80015190 	.word	0x80015190
80013434:	000001fb 	.word	0x000001fb
80013438:	800147f4 	.word	0x800147f4
8001343c:	80014818 	.word	0x80014818
80013440:	000001f7 	.word	0x000001f7
80013444:	8001514c 	.word	0x8001514c
80013448:	000001ed 	.word	0x000001ed

8001344c <page_check>:
8001344c:	e3a03000 	mov	r3, #0
80013450:	e92d43f0 	push	{r4, r5, r6, r7, r8, r9, lr}
80013454:	e24dd014 	sub	sp, sp, #20
80013458:	e28d0010 	add	r0, sp, #16
8001345c:	e520300c 	str	r3, [r0, #-12]!
80013460:	e58d300c 	str	r3, [sp, #12]
80013464:	e58d3008 	str	r3, [sp, #8]
80013468:	ebfffdd0 	bl	80012bb0 <page_alloc>
8001346c:	e3500000 	cmp	r0, #0
80013470:	1a000391 	bne	800142bc <page_check+0xe70>
80013474:	e28d0008 	add	r0, sp, #8
80013478:	ebfffdcc 	bl	80012bb0 <page_alloc>
8001347c:	e3500000 	cmp	r0, #0
80013480:	1a000388 	bne	800142a8 <page_check+0xe5c>
80013484:	e28d000c 	add	r0, sp, #12
80013488:	ebfffdc8 	bl	80012bb0 <page_alloc>
8001348c:	e3500000 	cmp	r0, #0
80013490:	1a00037f 	bne	80014294 <page_check+0xe48>
80013494:	e59d4004 	ldr	r4, [sp, #4]
80013498:	e3540000 	cmp	r4, #0
8001349c:	0a000368 	beq	80014244 <page_check+0xdf8>
800134a0:	e59d3008 	ldr	r3, [sp, #8]
800134a4:	e1540003 	cmp	r4, r3
800134a8:	13530000 	cmpne	r3, #0
800134ac:	0a0002cb 	beq	80013fe0 <page_check+0xb94>
800134b0:	e59d200c 	ldr	r2, [sp, #12]
800134b4:	e1530002 	cmp	r3, r2
800134b8:	13520000 	cmpne	r2, #0
800134bc:	03a03001 	moveq	r3, #1
800134c0:	13a03000 	movne	r3, #0
800134c4:	e1540002 	cmp	r4, r2
800134c8:	11a04003 	movne	r4, r3
800134cc:	03834001 	orreq	r4, r3, #1
800134d0:	e3540000 	cmp	r4, #0
800134d4:	1a0002b7 	bne	80013fb8 <page_check+0xb6c>
800134d8:	e59f0e04 	ldr	r0, [pc, #3588]	; 800142e4 <page_check+0xe98>
800134dc:	e59f8e04 	ldr	r8, [pc, #3588]	; 800142e8 <page_check+0xe9c>
800134e0:	ebfffa8d 	bl	80011f1c <printf>
800134e4:	e1a0000d 	mov	r0, sp
800134e8:	e5989000 	ldr	r9, [r8]
800134ec:	e5884000 	str	r4, [r8]
800134f0:	ebfffdae 	bl	80012bb0 <page_alloc>
800134f4:	e3700004 	cmn	r0, #4
800134f8:	1a0002e5 	bne	80014094 <page_check+0xc48>
800134fc:	e59f5de8 	ldr	r5, [pc, #3560]	; 800142ec <page_check+0xea0>
80013500:	e59f0de8 	ldr	r0, [pc, #3560]	; 800142f0 <page_check+0xea4>
80013504:	ebfffa84 	bl	80011f1c <printf>
80013508:	e2850010 	add	r0, r5, #16
8001350c:	e1a03004 	mov	r3, r4
80013510:	e3a02501 	mov	r2, #4194304	; 0x400000
80013514:	e59d1008 	ldr	r1, [sp, #8]
80013518:	ebfffe89 	bl	80012f44 <page_insert>
8001351c:	e3500000 	cmp	r0, #0
80013520:	aa0002d1 	bge	8001406c <page_check+0xc20>
80013524:	e59d0004 	ldr	r0, [sp, #4]
80013528:	ebfffdcc 	bl	80012c60 <page_free>
8001352c:	e1a03004 	mov	r3, r4
80013530:	e3a02501 	mov	r2, #4194304	; 0x400000
80013534:	e59d1008 	ldr	r1, [sp, #8]
80013538:	e2850010 	add	r0, r5, #16
8001353c:	ebfffe80 	bl	80012f44 <page_insert>
80013540:	e3500000 	cmp	r0, #0
80013544:	1a0002c3 	bne	80014058 <page_check+0xc0c>
80013548:	e59f4da4 	ldr	r4, [pc, #3492]	; 800142f4 <page_check+0xea8>
8001354c:	e59d3004 	ldr	r3, [sp, #4]
80013550:	e5942020 	ldr	r2, [r4, #32]
80013554:	e5951020 	ldr	r1, [r5, #32]
80013558:	e0433002 	sub	r3, r3, r2
8001355c:	e1a03143 	asr	r3, r3, #2
80013560:	e0832103 	add	r2, r3, r3, lsl #2
80013564:	e0822202 	add	r2, r2, r2, lsl #4
80013568:	e0822402 	add	r2, r2, r2, lsl #8
8001356c:	e0822802 	add	r2, r2, r2, lsl #16
80013570:	e0833082 	add	r3, r3, r2, lsl #1
80013574:	e1a03603 	lsl	r3, r3, #12
80013578:	e3c12fff 	bic	r2, r1, #1020	; 0x3fc
8001357c:	e2833101 	add	r3, r3, #1073741824	; 0x40000000
80013580:	e3c22003 	bic	r2, r2, #3
80013584:	e1520003 	cmp	r2, r3
80013588:	1a00029e 	bne	80014008 <page_check+0xbbc>
8001358c:	e59f0d64 	ldr	r0, [pc, #3428]	; 800142f8 <page_check+0xeac>
80013590:	ebfffa61 	bl	80011f1c <printf>
80013594:	e5942020 	ldr	r2, [r4, #32]
80013598:	e59d3008 	ldr	r3, [sp, #8]
8001359c:	e59f6d58 	ldr	r6, [pc, #3416]	; 800142fc <page_check+0xeb0>
800135a0:	e0433002 	sub	r3, r3, r2
800135a4:	e1a03143 	asr	r3, r3, #2
800135a8:	e0832103 	add	r2, r3, r3, lsl #2
800135ac:	e0822202 	add	r2, r2, r2, lsl #4
800135b0:	e0822402 	add	r2, r2, r2, lsl #8
800135b4:	e0822802 	add	r2, r2, r2, lsl #16
800135b8:	e0833082 	add	r3, r3, r2, lsl #1
800135bc:	e5961000 	ldr	r1, [r6]
800135c0:	e1a02603 	lsl	r2, r3, #12
800135c4:	e1510622 	cmp	r1, r2, lsr #12
800135c8:	9a0002eb 	bls	8001417c <page_check+0xd30>
800135cc:	e2822102 	add	r2, r2, #-2147483648	; 0x80000000
800135d0:	e3a01501 	mov	r1, #4194304	; 0x400000
800135d4:	e59f0d24 	ldr	r0, [pc, #3364]	; 80014300 <page_check+0xeb4>
800135d8:	ebfffa4f 	bl	80011f1c <printf>
800135dc:	e5951020 	ldr	r1, [r5, #32]
800135e0:	e59f0d1c 	ldr	r0, [pc, #3356]	; 80014304 <page_check+0xeb8>
800135e4:	ebfffa4c 	bl	80011f1c <printf>
800135e8:	e59f7d18 	ldr	r7, [pc, #3352]	; 80014308 <page_check+0xebc>
800135ec:	e5953020 	ldr	r3, [r5, #32]
800135f0:	e5962000 	ldr	r2, [r6]
800135f4:	e0033007 	and	r3, r3, r7
800135f8:	e2831103 	add	r1, r3, #-1073741824	; 0xc0000000
800135fc:	e1520621 	cmp	r2, r1, lsr #12
80013600:	9a0002cf 	bls	80014144 <page_check+0xcf8>
80013604:	e2833101 	add	r3, r3, #1073741824	; 0x40000000
80013608:	e5931000 	ldr	r1, [r3]
8001360c:	e59f0cf8 	ldr	r0, [pc, #3320]	; 8001430c <page_check+0xec0>
80013610:	ebfffa41 	bl	80011f1c <printf>
80013614:	e5953020 	ldr	r3, [r5, #32]
80013618:	e5962000 	ldr	r2, [r6]
8001361c:	e0033007 	and	r3, r3, r7
80013620:	e2831103 	add	r1, r3, #-1073741824	; 0xc0000000
80013624:	e1520621 	cmp	r2, r1, lsr #12
80013628:	9a0002c1 	bls	80014134 <page_check+0xce8>
8001362c:	e3a07501 	mov	r7, #4194304	; 0x400000
80013630:	e2833101 	add	r3, r3, #1073741824	; 0x40000000
80013634:	e5931000 	ldr	r1, [r3]
80013638:	e59f0cd0 	ldr	r0, [pc, #3280]	; 80014310 <page_check+0xec4>
8001363c:	ebfffa36 	bl	80011f1c <printf>
80013640:	e5971000 	ldr	r1, [r7]
80013644:	e59f0cc8 	ldr	r0, [pc, #3272]	; 80014314 <page_check+0xec8>
80013648:	ebfffa33 	bl	80011f1c <printf>
8001364c:	e5942020 	ldr	r2, [r4, #32]
80013650:	e59d3008 	ldr	r3, [sp, #8]
80013654:	e5961000 	ldr	r1, [r6]
80013658:	e0433002 	sub	r3, r3, r2
8001365c:	e1a03143 	asr	r3, r3, #2
80013660:	e0832103 	add	r2, r3, r3, lsl #2
80013664:	e0822202 	add	r2, r2, r2, lsl #4
80013668:	e0822402 	add	r2, r2, r2, lsl #8
8001366c:	e0822802 	add	r2, r2, r2, lsl #16
80013670:	e0833082 	add	r3, r3, r2, lsl #1
80013674:	e1a03603 	lsl	r3, r3, #12
80013678:	e1510623 	cmp	r1, r3, lsr #12
8001367c:	9a000248 	bls	80013fa4 <page_check+0xb58>
80013680:	e2833102 	add	r3, r3, #-2147483648	; 0x80000000
80013684:	e5931000 	ldr	r1, [r3]
80013688:	e59f0c88 	ldr	r0, [pc, #3208]	; 80014318 <page_check+0xecc>
8001368c:	ebfffa22 	bl	80011f1c <printf>
80013690:	e59f1c84 	ldr	r1, [pc, #3204]	; 8001431c <page_check+0xed0>
80013694:	e59f0c78 	ldr	r0, [pc, #3192]	; 80014314 <page_check+0xec8>
80013698:	e5871000 	str	r1, [r7]
8001369c:	ebfffa1e 	bl	80011f1c <printf>
800136a0:	e5942020 	ldr	r2, [r4, #32]
800136a4:	e59d3008 	ldr	r3, [sp, #8]
800136a8:	e5961000 	ldr	r1, [r6]
800136ac:	e0433002 	sub	r3, r3, r2
800136b0:	e1a03143 	asr	r3, r3, #2
800136b4:	e0832103 	add	r2, r3, r3, lsl #2
800136b8:	e0822202 	add	r2, r2, r2, lsl #4
800136bc:	e0822402 	add	r2, r2, r2, lsl #8
800136c0:	e0822802 	add	r2, r2, r2, lsl #16
800136c4:	e0833082 	add	r3, r3, r2, lsl #1
800136c8:	e1a03603 	lsl	r3, r3, #12
800136cc:	e1510623 	cmp	r1, r3, lsr #12
800136d0:	9a000233 	bls	80013fa4 <page_check+0xb58>
800136d4:	e2833102 	add	r3, r3, #-2147483648	; 0x80000000
800136d8:	e5931000 	ldr	r1, [r3]
800136dc:	e59f0c34 	ldr	r0, [pc, #3124]	; 80014318 <page_check+0xecc>
800136e0:	ebfffa0d 	bl	80011f1c <printf>
800136e4:	e5942020 	ldr	r2, [r4, #32]
800136e8:	e59d3008 	ldr	r3, [sp, #8]
800136ec:	e5961000 	ldr	r1, [r6]
800136f0:	e0433002 	sub	r3, r3, r2
800136f4:	e1a03143 	asr	r3, r3, #2
800136f8:	e0832103 	add	r2, r3, r3, lsl #2
800136fc:	e0822202 	add	r2, r2, r2, lsl #4
80013700:	e0822402 	add	r2, r2, r2, lsl #8
80013704:	e0822802 	add	r2, r2, r2, lsl #16
80013708:	e0833082 	add	r3, r3, r2, lsl #1
8001370c:	e1a03603 	lsl	r3, r3, #12
80013710:	e1510623 	cmp	r1, r3, lsr #12
80013714:	9a000222 	bls	80013fa4 <page_check+0xb58>
80013718:	e59f2c00 	ldr	r2, [pc, #3072]	; 80014320 <page_check+0xed4>
8001371c:	e2833102 	add	r3, r3, #-2147483648	; 0x80000000
80013720:	e5832000 	str	r2, [r3]
80013724:	e5971000 	ldr	r1, [r7]
80013728:	e59f0be4 	ldr	r0, [pc, #3044]	; 80014314 <page_check+0xec8>
8001372c:	ebfff9fa 	bl	80011f1c <printf>
80013730:	e5942020 	ldr	r2, [r4, #32]
80013734:	e59d3008 	ldr	r3, [sp, #8]
80013738:	e5961000 	ldr	r1, [r6]
8001373c:	e0433002 	sub	r3, r3, r2
80013740:	e1a03143 	asr	r3, r3, #2
80013744:	e0832103 	add	r2, r3, r3, lsl #2
80013748:	e0822202 	add	r2, r2, r2, lsl #4
8001374c:	e0822402 	add	r2, r2, r2, lsl #8
80013750:	e0822802 	add	r2, r2, r2, lsl #16
80013754:	e0833082 	add	r3, r3, r2, lsl #1
80013758:	e1a03603 	lsl	r3, r3, #12
8001375c:	e1510623 	cmp	r1, r3, lsr #12
80013760:	9a00020f 	bls	80013fa4 <page_check+0xb58>
80013764:	e2833102 	add	r3, r3, #-2147483648	; 0x80000000
80013768:	e5931000 	ldr	r1, [r3]
8001376c:	e59f0ba4 	ldr	r0, [pc, #2980]	; 80014318 <page_check+0xecc>
80013770:	ebfff9e9 	bl	80011f1c <printf>
80013774:	e5942020 	ldr	r2, [r4, #32]
80013778:	e59d3008 	ldr	r3, [sp, #8]
8001377c:	e59f1ba0 	ldr	r1, [pc, #2976]	; 80014324 <page_check+0xed8>
80013780:	e0433002 	sub	r3, r3, r2
80013784:	e1a03143 	asr	r3, r3, #2
80013788:	e0832103 	add	r2, r3, r3, lsl #2
8001378c:	e0822202 	add	r2, r2, r2, lsl #4
80013790:	e0822402 	add	r2, r2, r2, lsl #8
80013794:	e0822802 	add	r2, r2, r2, lsl #16
80013798:	e0833082 	add	r3, r3, r2, lsl #1
8001379c:	e5962000 	ldr	r2, [r6]
800137a0:	e1a03603 	lsl	r3, r3, #12
800137a4:	e1520623 	cmp	r2, r3, lsr #12
800137a8:	e5871000 	str	r1, [r7]
800137ac:	9a0001fc 	bls	80013fa4 <page_check+0xb58>
800137b0:	e59f2b70 	ldr	r2, [pc, #2928]	; 80014328 <page_check+0xedc>
800137b4:	e2833102 	add	r3, r3, #-2147483648	; 0x80000000
800137b8:	e5832000 	str	r2, [r3]
800137bc:	e5971000 	ldr	r1, [r7]
800137c0:	e59f0b4c 	ldr	r0, [pc, #2892]	; 80014314 <page_check+0xec8>
800137c4:	ebfff9d4 	bl	80011f1c <printf>
800137c8:	e5942020 	ldr	r2, [r4, #32]
800137cc:	e59d3008 	ldr	r3, [sp, #8]
800137d0:	e5961000 	ldr	r1, [r6]
800137d4:	e0433002 	sub	r3, r3, r2
800137d8:	e1a03143 	asr	r3, r3, #2
800137dc:	e0832103 	add	r2, r3, r3, lsl #2
800137e0:	e0822202 	add	r2, r2, r2, lsl #4
800137e4:	e0822402 	add	r2, r2, r2, lsl #8
800137e8:	e0822802 	add	r2, r2, r2, lsl #16
800137ec:	e0833082 	add	r3, r3, r2, lsl #1
800137f0:	e1a03603 	lsl	r3, r3, #12
800137f4:	e1510623 	cmp	r1, r3, lsr #12
800137f8:	9a0001e9 	bls	80013fa4 <page_check+0xb58>
800137fc:	e2833102 	add	r3, r3, #-2147483648	; 0x80000000
80013800:	e5931000 	ldr	r1, [r3]
80013804:	e59f0b0c 	ldr	r0, [pc, #2828]	; 80014318 <page_check+0xecc>
80013808:	ebfff9c3 	bl	80011f1c <printf>
8001380c:	e5951020 	ldr	r1, [r5, #32]
80013810:	e59f3b14 	ldr	r3, [pc, #2836]	; 8001432c <page_check+0xee0>
80013814:	e1d33001 	bics	r3, r3, r1
80013818:	020114ff 	andeq	r1, r1, #-16777216	; 0xff000000
8001381c:	03811501 	orreq	r1, r1, #4194304	; 0x400000
80013820:	0a000008 	beq	80013848 <page_check+0x3fc>
80013824:	e59f3b04 	ldr	r3, [pc, #2820]	; 80014330 <page_check+0xee4>
80013828:	e1d33001 	bics	r3, r3, r1
8001382c:	01a01a21 	lsreq	r1, r1, #20
80013830:	01a01a01 	lsleq	r1, r1, #20
80013834:	0a000003 	beq	80013848 <page_check+0x3fc>
80013838:	e2013021 	and	r3, r1, #33	; 0x21
8001383c:	e3530021 	cmp	r3, #33	; 0x21
80013840:	0a000160 	beq	80013dc8 <page_check+0x97c>
80013844:	e3e01000 	mvn	r1, #0
80013848:	e59f0ae4 	ldr	r0, [pc, #2788]	; 80014334 <page_check+0xee8>
8001384c:	ebfff9b2 	bl	80011f1c <printf>
80013850:	e5943020 	ldr	r3, [r4, #32]
80013854:	e59d1008 	ldr	r1, [sp, #8]
80013858:	e59f0ad8 	ldr	r0, [pc, #2776]	; 80014338 <page_check+0xeec>
8001385c:	e0411003 	sub	r1, r1, r3
80013860:	e1a01141 	asr	r1, r1, #2
80013864:	e0813101 	add	r3, r1, r1, lsl #2
80013868:	e0833203 	add	r3, r3, r3, lsl #4
8001386c:	e0833403 	add	r3, r3, r3, lsl #8
80013870:	e0833803 	add	r3, r3, r3, lsl #16
80013874:	e0811083 	add	r1, r1, r3, lsl #1
80013878:	e1a01601 	lsl	r1, r1, #12
8001387c:	e2811101 	add	r1, r1, #1073741824	; 0x40000000
80013880:	ebfff9a5 	bl	80011f1c <printf>
80013884:	e5951020 	ldr	r1, [r5, #32]
80013888:	e59f3a9c 	ldr	r3, [pc, #2716]	; 8001432c <page_check+0xee0>
8001388c:	e1d33001 	bics	r3, r3, r1
80013890:	020114ff 	andeq	r1, r1, #-16777216	; 0xff000000
80013894:	03811501 	orreq	r1, r1, #4194304	; 0x400000
80013898:	0a000008 	beq	800138c0 <page_check+0x474>
8001389c:	e59f3a8c 	ldr	r3, [pc, #2700]	; 80014330 <page_check+0xee4>
800138a0:	e1d33001 	bics	r3, r3, r1
800138a4:	01a01a21 	lsreq	r1, r1, #20
800138a8:	01a01a01 	lsleq	r1, r1, #20
800138ac:	0a000003 	beq	800138c0 <page_check+0x474>
800138b0:	e2013021 	and	r3, r1, #33	; 0x21
800138b4:	e3530021 	cmp	r3, #33	; 0x21
800138b8:	0a000133 	beq	80013d8c <page_check+0x940>
800138bc:	e3e01000 	mvn	r1, #0
800138c0:	e59d0008 	ldr	r0, [sp, #8]
800138c4:	e5943020 	ldr	r3, [r4, #32]
800138c8:	e0403003 	sub	r3, r0, r3
800138cc:	e1a03143 	asr	r3, r3, #2
800138d0:	e0832103 	add	r2, r3, r3, lsl #2
800138d4:	e0822202 	add	r2, r2, r2, lsl #4
800138d8:	e0822402 	add	r2, r2, r2, lsl #8
800138dc:	e0822802 	add	r2, r2, r2, lsl #16
800138e0:	e0833082 	add	r3, r3, r2, lsl #1
800138e4:	e1a03603 	lsl	r3, r3, #12
800138e8:	e2833101 	add	r3, r3, #1073741824	; 0x40000000
800138ec:	e1530001 	cmp	r3, r1
800138f0:	1a0001e2 	bne	80014080 <page_check+0xc34>
800138f4:	e1d030b8 	ldrh	r3, [r0, #8]
800138f8:	e3530001 	cmp	r3, #1
800138fc:	1a0001c6 	bne	8001401c <page_check+0xbd0>
80013900:	e59f7a34 	ldr	r7, [pc, #2612]	; 8001433c <page_check+0xef0>
80013904:	e3a03000 	mov	r3, #0
80013908:	e1a02007 	mov	r2, r7
8001390c:	e59d100c 	ldr	r1, [sp, #12]
80013910:	e59f0a28 	ldr	r0, [pc, #2600]	; 80014340 <page_check+0xef4>
80013914:	ebfffd8a 	bl	80012f44 <page_insert>
80013918:	e3500000 	cmp	r0, #0
8001391c:	1a0001c8 	bne	80014044 <page_check+0xbf8>
80013920:	e5952020 	ldr	r2, [r5, #32]
80013924:	e59f3a00 	ldr	r3, [pc, #2560]	; 8001432c <page_check+0xee0>
80013928:	e1d33002 	bics	r3, r3, r2
8001392c:	020224ff 	andeq	r2, r2, #-16777216	; 0xff000000
80013930:	01822007 	orreq	r2, r2, r7
80013934:	0a000009 	beq	80013960 <page_check+0x514>
80013938:	e59f39f0 	ldr	r3, [pc, #2544]	; 80014330 <page_check+0xee4>
8001393c:	e1d33002 	bics	r3, r3, r2
80013940:	01a02a22 	lsreq	r2, r2, #20
80013944:	01a02a02 	lsleq	r2, r2, #20
80013948:	03822a01 	orreq	r2, r2, #4096	; 0x1000
8001394c:	0a000003 	beq	80013960 <page_check+0x514>
80013950:	e2023021 	and	r3, r2, #33	; 0x21
80013954:	e3530021 	cmp	r3, #33	; 0x21
80013958:	0a000129 	beq	80013e04 <page_check+0x9b8>
8001395c:	e3e02000 	mvn	r2, #0
80013960:	e59d000c 	ldr	r0, [sp, #12]
80013964:	e5943020 	ldr	r3, [r4, #32]
80013968:	e0403003 	sub	r3, r0, r3
8001396c:	e1a03143 	asr	r3, r3, #2
80013970:	e0831103 	add	r1, r3, r3, lsl #2
80013974:	e0811201 	add	r1, r1, r1, lsl #4
80013978:	e0811401 	add	r1, r1, r1, lsl #8
8001397c:	e0811801 	add	r1, r1, r1, lsl #16
80013980:	e0833081 	add	r3, r3, r1, lsl #1
80013984:	e1a03603 	lsl	r3, r3, #12
80013988:	e2833101 	add	r3, r3, #1073741824	; 0x40000000
8001398c:	e1530002 	cmp	r3, r2
80013990:	1a000217 	bne	800141f4 <page_check+0xda8>
80013994:	e1d030b8 	ldrh	r3, [r0, #8]
80013998:	e3530001 	cmp	r3, #1
8001399c:	1a0001d0 	bne	800140e4 <page_check+0xc98>
800139a0:	e1a0000d 	mov	r0, sp
800139a4:	ebfffc81 	bl	80012bb0 <page_alloc>
800139a8:	e3700004 	cmn	r0, #4
800139ac:	1a0001f7 	bne	80014190 <page_check+0xd44>
800139b0:	e59f7984 	ldr	r7, [pc, #2436]	; 8001433c <page_check+0xef0>
800139b4:	e59f0988 	ldr	r0, [pc, #2440]	; 80014344 <page_check+0xef8>
800139b8:	ebfff957 	bl	80011f1c <printf>
800139bc:	e1a02007 	mov	r2, r7
800139c0:	e3a03000 	mov	r3, #0
800139c4:	e59d100c 	ldr	r1, [sp, #12]
800139c8:	e59f0970 	ldr	r0, [pc, #2416]	; 80014340 <page_check+0xef4>
800139cc:	ebfffd5c 	bl	80012f44 <page_insert>
800139d0:	e3500000 	cmp	r0, #0
800139d4:	1a00020b 	bne	80014208 <page_check+0xdbc>
800139d8:	e5952020 	ldr	r2, [r5, #32]
800139dc:	e59f3948 	ldr	r3, [pc, #2376]	; 8001432c <page_check+0xee0>
800139e0:	e1d33002 	bics	r3, r3, r2
800139e4:	020224ff 	andeq	r2, r2, #-16777216	; 0xff000000
800139e8:	01822007 	orreq	r2, r2, r7
800139ec:	0a000009 	beq	80013a18 <page_check+0x5cc>
800139f0:	e59f3938 	ldr	r3, [pc, #2360]	; 80014330 <page_check+0xee4>
800139f4:	e1d33002 	bics	r3, r3, r2
800139f8:	01a02a22 	lsreq	r2, r2, #20
800139fc:	01a02a02 	lsleq	r2, r2, #20
80013a00:	03822a01 	orreq	r2, r2, #4096	; 0x1000
80013a04:	0a000003 	beq	80013a18 <page_check+0x5cc>
80013a08:	e2023021 	and	r3, r2, #33	; 0x21
80013a0c:	e3530021 	cmp	r3, #33	; 0x21
80013a10:	0a00010a 	beq	80013e40 <page_check+0x9f4>
80013a14:	e3e02000 	mvn	r2, #0
80013a18:	e59d000c 	ldr	r0, [sp, #12]
80013a1c:	e5943020 	ldr	r3, [r4, #32]
80013a20:	e0403003 	sub	r3, r0, r3
80013a24:	e1a03143 	asr	r3, r3, #2
80013a28:	e0831103 	add	r1, r3, r3, lsl #2
80013a2c:	e0811201 	add	r1, r1, r1, lsl #4
80013a30:	e0811401 	add	r1, r1, r1, lsl #8
80013a34:	e0811801 	add	r1, r1, r1, lsl #16
80013a38:	e0833081 	add	r3, r3, r1, lsl #1
80013a3c:	e1a03603 	lsl	r3, r3, #12
80013a40:	e2833101 	add	r3, r3, #1073741824	; 0x40000000
80013a44:	e1530002 	cmp	r3, r2
80013a48:	1a0001f8 	bne	80014230 <page_check+0xde4>
80013a4c:	e1d030b8 	ldrh	r3, [r0, #8]
80013a50:	e3530001 	cmp	r3, #1
80013a54:	1a0001f0 	bne	8001421c <page_check+0xdd0>
80013a58:	e1a0000d 	mov	r0, sp
80013a5c:	ebfffc53 	bl	80012bb0 <page_alloc>
80013a60:	e3700004 	cmn	r0, #4
80013a64:	1a000171 	bne	80014030 <page_check+0xbe4>
80013a68:	e3a03000 	mov	r3, #0
80013a6c:	e3a02603 	mov	r2, #3145728	; 0x300000
80013a70:	e59d1004 	ldr	r1, [sp, #4]
80013a74:	e59f08c4 	ldr	r0, [pc, #2244]	; 80014340 <page_check+0xef4>
80013a78:	ebfffd31 	bl	80012f44 <page_insert>
80013a7c:	e3500000 	cmp	r0, #0
80013a80:	aa0001b3 	bge	80014154 <page_check+0xd08>
80013a84:	e59f78b0 	ldr	r7, [pc, #2224]	; 8001433c <page_check+0xef0>
80013a88:	e3a03000 	mov	r3, #0
80013a8c:	e1a02007 	mov	r2, r7
80013a90:	e59d1008 	ldr	r1, [sp, #8]
80013a94:	e59f08a4 	ldr	r0, [pc, #2212]	; 80014340 <page_check+0xef4>
80013a98:	ebfffd29 	bl	80012f44 <page_insert>
80013a9c:	e3500000 	cmp	r0, #0
80013aa0:	1a00018a 	bne	800140d0 <page_check+0xc84>
80013aa4:	e5953020 	ldr	r3, [r5, #32]
80013aa8:	e59f287c 	ldr	r2, [pc, #2172]	; 8001432c <page_check+0xee0>
80013aac:	e1d22003 	bics	r2, r2, r3
80013ab0:	0a00008f 	beq	80013cf4 <page_check+0x8a8>
80013ab4:	e59f2874 	ldr	r2, [pc, #2164]	; 80014330 <page_check+0xee4>
80013ab8:	e1d22003 	bics	r2, r2, r3
80013abc:	0a0000a1 	beq	80013d48 <page_check+0x8fc>
80013ac0:	e203c021 	and	ip, r3, #33	; 0x21
80013ac4:	e35c0021 	cmp	ip, #33	; 0x21
80013ac8:	0a0000eb 	beq	80013e7c <page_check+0xa30>
80013acc:	e3e01000 	mvn	r1, #0
80013ad0:	e59d0008 	ldr	r0, [sp, #8]
80013ad4:	e5942020 	ldr	r2, [r4, #32]
80013ad8:	e0402002 	sub	r2, r0, r2
80013adc:	e1a02142 	asr	r2, r2, #2
80013ae0:	e082e102 	add	lr, r2, r2, lsl #2
80013ae4:	e08ee20e 	add	lr, lr, lr, lsl #4
80013ae8:	e08ee40e 	add	lr, lr, lr, lsl #8
80013aec:	e08ee80e 	add	lr, lr, lr, lsl #16
80013af0:	e082208e 	add	r2, r2, lr, lsl #1
80013af4:	e1a02602 	lsl	r2, r2, #12
80013af8:	e2822101 	add	r2, r2, #1073741824	; 0x40000000
80013afc:	e1520001 	cmp	r2, r1
80013b00:	1a00008b 	bne	80013d34 <page_check+0x8e8>
80013b04:	e35c0021 	cmp	ip, #33	; 0x21
80013b08:	0a0000ea 	beq	80013eb8 <page_check+0xa6c>
80013b0c:	e3e07000 	mvn	r7, #0
80013b10:	e1570001 	cmp	r7, r1
80013b14:	1a000168 	bne	800140bc <page_check+0xc70>
80013b18:	e1d030b8 	ldrh	r3, [r0, #8]
80013b1c:	e3530002 	cmp	r3, #2
80013b20:	1a000160 	bne	800140a8 <page_check+0xc5c>
80013b24:	e59d300c 	ldr	r3, [sp, #12]
80013b28:	e59f0818 	ldr	r0, [pc, #2072]	; 80014348 <page_check+0xefc>
80013b2c:	e1d310b8 	ldrh	r1, [r3, #8]
80013b30:	ebfff8f9 	bl	80011f1c <printf>
80013b34:	e59d300c 	ldr	r3, [sp, #12]
80013b38:	e1d330b8 	ldrh	r3, [r3, #8]
80013b3c:	e3530000 	cmp	r3, #0
80013b40:	1a000188 	bne	80014168 <page_check+0xd1c>
80013b44:	e59f0800 	ldr	r0, [pc, #2048]	; 8001434c <page_check+0xf00>
80013b48:	ebfff8f3 	bl	80011f1c <printf>
80013b4c:	e1a0000d 	mov	r0, sp
80013b50:	ebfffc16 	bl	80012bb0 <page_alloc>
80013b54:	e3500000 	cmp	r0, #0
80013b58:	1a00011b 	bne	80013fcc <page_check+0xb80>
80013b5c:	e59d2000 	ldr	r2, [sp]
80013b60:	e59d300c 	ldr	r3, [sp, #12]
80013b64:	e1520003 	cmp	r2, r3
80013b68:	1a000117 	bne	80013fcc <page_check+0xb80>
80013b6c:	e3a01501 	mov	r1, #4194304	; 0x400000
80013b70:	e59f07c8 	ldr	r0, [pc, #1992]	; 80014340 <page_check+0xef4>
80013b74:	ebfffcd0 	bl	80012ebc <page_remove.part.3>
80013b78:	e5953020 	ldr	r3, [r5, #32]
80013b7c:	e59f27a8 	ldr	r2, [pc, #1960]	; 8001432c <page_check+0xee0>
80013b80:	e1d22003 	bics	r2, r2, r3
80013b84:	0a000186 	beq	800141a4 <page_check+0xd58>
80013b88:	e59f27a0 	ldr	r2, [pc, #1952]	; 80014330 <page_check+0xee4>
80013b8c:	e1d22003 	bics	r2, r2, r3
80013b90:	0a000183 	beq	800141a4 <page_check+0xd58>
80013b94:	e2032021 	and	r2, r3, #33	; 0x21
80013b98:	e3520021 	cmp	r2, #33	; 0x21
80013b9c:	0a0000d4 	beq	80013ef4 <page_check+0xaa8>
80013ba0:	e3e00000 	mvn	r0, #0
80013ba4:	e59d1008 	ldr	r1, [sp, #8]
80013ba8:	e5943020 	ldr	r3, [r4, #32]
80013bac:	e0413003 	sub	r3, r1, r3
80013bb0:	e1a03143 	asr	r3, r3, #2
80013bb4:	e0832103 	add	r2, r3, r3, lsl #2
80013bb8:	e0822202 	add	r2, r2, r2, lsl #4
80013bbc:	e0822402 	add	r2, r2, r2, lsl #8
80013bc0:	e0822802 	add	r2, r2, r2, lsl #16
80013bc4:	e0833082 	add	r3, r3, r2, lsl #1
80013bc8:	e1a03603 	lsl	r3, r3, #12
80013bcc:	e2833101 	add	r3, r3, #1073741824	; 0x40000000
80013bd0:	e1530000 	cmp	r3, r0
80013bd4:	1a000151 	bne	80014120 <page_check+0xcd4>
80013bd8:	e1d130b8 	ldrh	r3, [r1, #8]
80013bdc:	e3530001 	cmp	r3, #1
80013be0:	1a000149 	bne	8001410c <page_check+0xcc0>
80013be4:	e59d300c 	ldr	r3, [sp, #12]
80013be8:	e1d330b8 	ldrh	r3, [r3, #8]
80013bec:	e3530000 	cmp	r3, #0
80013bf0:	1a00017a 	bne	800141e0 <page_check+0xd94>
80013bf4:	e59f1740 	ldr	r1, [pc, #1856]	; 8001433c <page_check+0xef0>
80013bf8:	e59f0740 	ldr	r0, [pc, #1856]	; 80014340 <page_check+0xef4>
80013bfc:	ebfffcae 	bl	80012ebc <page_remove.part.3>
80013c00:	e5953020 	ldr	r3, [r5, #32]
80013c04:	e59f2720 	ldr	r2, [pc, #1824]	; 8001432c <page_check+0xee0>
80013c08:	e1d22003 	bics	r2, r2, r3
80013c0c:	0a00016e 	beq	800141cc <page_check+0xd80>
80013c10:	e59f2718 	ldr	r2, [pc, #1816]	; 80014330 <page_check+0xee4>
80013c14:	e1d22003 	bics	r2, r2, r3
80013c18:	0a00016b 	beq	800141cc <page_check+0xd80>
80013c1c:	e2032021 	and	r2, r3, #33	; 0x21
80013c20:	e3520021 	cmp	r2, #33	; 0x21
80013c24:	0a0000cb 	beq	80013f58 <page_check+0xb0c>
80013c28:	e59d3008 	ldr	r3, [sp, #8]
80013c2c:	e1d330b8 	ldrh	r3, [r3, #8]
80013c30:	e3530000 	cmp	r3, #0
80013c34:	1a00015f 	bne	800141b8 <page_check+0xd6c>
80013c38:	e59d300c 	ldr	r3, [sp, #12]
80013c3c:	e1d330b8 	ldrh	r3, [r3, #8]
80013c40:	e3530000 	cmp	r3, #0
80013c44:	1a000183 	bne	80014258 <page_check+0xe0c>
80013c48:	e1a0000d 	mov	r0, sp
80013c4c:	ebfffbd7 	bl	80012bb0 <page_alloc>
80013c50:	e2506000 	subs	r6, r0, #0
80013c54:	1a0000e6 	bne	80013ff4 <page_check+0xba8>
80013c58:	e59d2000 	ldr	r2, [sp]
80013c5c:	e59d3008 	ldr	r3, [sp, #8]
80013c60:	e1520003 	cmp	r2, r3
80013c64:	1a0000e2 	bne	80013ff4 <page_check+0xba8>
80013c68:	e1a0000d 	mov	r0, sp
80013c6c:	ebfffbcf 	bl	80012bb0 <page_alloc>
80013c70:	e3700004 	cmn	r0, #4
80013c74:	1a000181 	bne	80014280 <page_check+0xe34>
80013c78:	e5943020 	ldr	r3, [r4, #32]
80013c7c:	e59d0004 	ldr	r0, [sp, #4]
80013c80:	e5951020 	ldr	r1, [r5, #32]
80013c84:	e0403003 	sub	r3, r0, r3
80013c88:	e1a03143 	asr	r3, r3, #2
80013c8c:	e0832103 	add	r2, r3, r3, lsl #2
80013c90:	e0822202 	add	r2, r2, r2, lsl #4
80013c94:	e0822402 	add	r2, r2, r2, lsl #8
80013c98:	e0822802 	add	r2, r2, r2, lsl #16
80013c9c:	e0833082 	add	r3, r3, r2, lsl #1
80013ca0:	e1a03603 	lsl	r3, r3, #12
80013ca4:	e3c11fff 	bic	r1, r1, #1020	; 0x3fc
80013ca8:	e2833101 	add	r3, r3, #1073741824	; 0x40000000
80013cac:	e3c11003 	bic	r1, r1, #3
80013cb0:	e1510003 	cmp	r1, r3
80013cb4:	1a00016c 	bne	8001426c <page_check+0xe20>
80013cb8:	e1d030b8 	ldrh	r3, [r0, #8]
80013cbc:	e5856020 	str	r6, [r5, #32]
80013cc0:	e3530001 	cmp	r3, #1
80013cc4:	1a00010b 	bne	800140f8 <page_check+0xcac>
80013cc8:	e1c060b8 	strh	r6, [r0, #8]
80013ccc:	e5889000 	str	r9, [r8]
80013cd0:	ebfffbe2 	bl	80012c60 <page_free>
80013cd4:	e59d0008 	ldr	r0, [sp, #8]
80013cd8:	ebfffbe0 	bl	80012c60 <page_free>
80013cdc:	e59d000c 	ldr	r0, [sp, #12]
80013ce0:	ebfffbde 	bl	80012c60 <page_free>
80013ce4:	e59f0664 	ldr	r0, [pc, #1636]	; 80014350 <page_check+0xf04>
80013ce8:	ebfff88b 	bl	80011f1c <printf>
80013cec:	e28dd014 	add	sp, sp, #20
80013cf0:	e8bd83f0 	pop	{r4, r5, r6, r7, r8, r9, pc}
80013cf4:	e59d0008 	ldr	r0, [sp, #8]
80013cf8:	e5941020 	ldr	r1, [r4, #32]
80013cfc:	e20334ff 	and	r3, r3, #-16777216	; 0xff000000
80013d00:	e0401001 	sub	r1, r0, r1
80013d04:	e1a01141 	asr	r1, r1, #2
80013d08:	e0812101 	add	r2, r1, r1, lsl #2
80013d0c:	e0822202 	add	r2, r2, r2, lsl #4
80013d10:	e0822402 	add	r2, r2, r2, lsl #8
80013d14:	e0822802 	add	r2, r2, r2, lsl #16
80013d18:	e0811082 	add	r1, r1, r2, lsl #1
80013d1c:	e1a01601 	lsl	r1, r1, #12
80013d20:	e2811101 	add	r1, r1, #1073741824	; 0x40000000
80013d24:	e3832501 	orr	r2, r3, #4194304	; 0x400000
80013d28:	e1510002 	cmp	r1, r2
80013d2c:	01837007 	orreq	r7, r3, r7
80013d30:	0affff76 	beq	80013b10 <page_check+0x6c4>
80013d34:	e59f3618 	ldr	r3, [pc, #1560]	; 80014354 <page_check+0xf08>
80013d38:	e59f2618 	ldr	r2, [pc, #1560]	; 80014358 <page_check+0xf0c>
80013d3c:	e59f1618 	ldr	r1, [pc, #1560]	; 8001435c <page_check+0xf10>
80013d40:	e59f0618 	ldr	r0, [pc, #1560]	; 80014360 <page_check+0xf14>
80013d44:	ebfff883 	bl	80011f58 <_panic>
80013d48:	e5942020 	ldr	r2, [r4, #32]
80013d4c:	e59d0008 	ldr	r0, [sp, #8]
80013d50:	e1a01a23 	lsr	r1, r3, #20
80013d54:	e0403002 	sub	r3, r0, r2
80013d58:	e1a03143 	asr	r3, r3, #2
80013d5c:	e0832103 	add	r2, r3, r3, lsl #2
80013d60:	e0822202 	add	r2, r2, r2, lsl #4
80013d64:	e0822402 	add	r2, r2, r2, lsl #8
80013d68:	e0822802 	add	r2, r2, r2, lsl #16
80013d6c:	e0833082 	add	r3, r3, r2, lsl #1
80013d70:	e1a03603 	lsl	r3, r3, #12
80013d74:	e1a01a01 	lsl	r1, r1, #20
80013d78:	e2833101 	add	r3, r3, #1073741824	; 0x40000000
80013d7c:	e1510003 	cmp	r1, r3
80013d80:	03817a01 	orreq	r7, r1, #4096	; 0x1000
80013d84:	0affff61 	beq	80013b10 <page_check+0x6c4>
80013d88:	eaffffe9 	b	80013d34 <page_check+0x8e8>
80013d8c:	e3c13fff 	bic	r3, r1, #1020	; 0x3fc
80013d90:	e3c33003 	bic	r3, r3, #3
80013d94:	e5961000 	ldr	r1, [r6]
80013d98:	e2832103 	add	r2, r3, #-1073741824	; 0xc0000000
80013d9c:	e1510622 	cmp	r1, r2, lsr #12
80013da0:	9a00014b 	bls	800142d4 <page_check+0xe88>
80013da4:	e2831101 	add	r1, r3, #1073741824	; 0x40000000
80013da8:	e5911000 	ldr	r1, [r1]
80013dac:	e59f35b0 	ldr	r3, [pc, #1456]	; 80014364 <page_check+0xf18>
80013db0:	e0033001 	and	r3, r3, r1
80013db4:	e3530000 	cmp	r3, #0
80013db8:	13c11eff 	bicne	r1, r1, #4080	; 0xff0
80013dbc:	13c1100f 	bicne	r1, r1, #15
80013dc0:	0afffebd 	beq	800138bc <page_check+0x470>
80013dc4:	eafffebd 	b	800138c0 <page_check+0x474>
80013dc8:	e3c13fff 	bic	r3, r1, #1020	; 0x3fc
80013dcc:	e3c33003 	bic	r3, r3, #3
80013dd0:	e5961000 	ldr	r1, [r6]
80013dd4:	e2832103 	add	r2, r3, #-1073741824	; 0xc0000000
80013dd8:	e1510622 	cmp	r1, r2, lsr #12
80013ddc:	9a00013c 	bls	800142d4 <page_check+0xe88>
80013de0:	e2831101 	add	r1, r3, #1073741824	; 0x40000000
80013de4:	e5911000 	ldr	r1, [r1]
80013de8:	e59f3574 	ldr	r3, [pc, #1396]	; 80014364 <page_check+0xf18>
80013dec:	e0033001 	and	r3, r3, r1
80013df0:	e3530000 	cmp	r3, #0
80013df4:	13c11eff 	bicne	r1, r1, #4080	; 0xff0
80013df8:	13c1100f 	bicne	r1, r1, #15
80013dfc:	0afffe90 	beq	80013844 <page_check+0x3f8>
80013e00:	eafffe90 	b	80013848 <page_check+0x3fc>
80013e04:	e3c23fff 	bic	r3, r2, #1020	; 0x3fc
80013e08:	e3c33003 	bic	r3, r3, #3
80013e0c:	e5962000 	ldr	r2, [r6]
80013e10:	e2831103 	add	r1, r3, #-1073741824	; 0xc0000000
80013e14:	e1520621 	cmp	r2, r1, lsr #12
80013e18:	9a00012d 	bls	800142d4 <page_check+0xe88>
80013e1c:	e2832101 	add	r2, r3, #1073741824	; 0x40000000
80013e20:	e5922004 	ldr	r2, [r2, #4]
80013e24:	e59f3538 	ldr	r3, [pc, #1336]	; 80014364 <page_check+0xf18>
80013e28:	e0033002 	and	r3, r3, r2
80013e2c:	e3530000 	cmp	r3, #0
80013e30:	13c22eff 	bicne	r2, r2, #4080	; 0xff0
80013e34:	13c2200f 	bicne	r2, r2, #15
80013e38:	0afffec7 	beq	8001395c <page_check+0x510>
80013e3c:	eafffec7 	b	80013960 <page_check+0x514>
80013e40:	e3c23fff 	bic	r3, r2, #1020	; 0x3fc
80013e44:	e3c33003 	bic	r3, r3, #3
80013e48:	e5962000 	ldr	r2, [r6]
80013e4c:	e2831103 	add	r1, r3, #-1073741824	; 0xc0000000
80013e50:	e1520621 	cmp	r2, r1, lsr #12
80013e54:	9a00011e 	bls	800142d4 <page_check+0xe88>
80013e58:	e2832101 	add	r2, r3, #1073741824	; 0x40000000
80013e5c:	e5922004 	ldr	r2, [r2, #4]
80013e60:	e59f34fc 	ldr	r3, [pc, #1276]	; 80014364 <page_check+0xf18>
80013e64:	e0033002 	and	r3, r3, r2
80013e68:	e3530000 	cmp	r3, #0
80013e6c:	13c22eff 	bicne	r2, r2, #4080	; 0xff0
80013e70:	13c2200f 	bicne	r2, r2, #15
80013e74:	0afffee6 	beq	80013a14 <page_check+0x5c8>
80013e78:	eafffee6 	b	80013a18 <page_check+0x5cc>
80013e7c:	e3c32fff 	bic	r2, r3, #1020	; 0x3fc
80013e80:	e3c22003 	bic	r2, r2, #3
80013e84:	e5961000 	ldr	r1, [r6]
80013e88:	e2820103 	add	r0, r2, #-1073741824	; 0xc0000000
80013e8c:	e1510620 	cmp	r1, r0, lsr #12
80013e90:	9a00010e 	bls	800142d0 <page_check+0xe84>
80013e94:	e2822101 	add	r2, r2, #1073741824	; 0x40000000
80013e98:	e5921000 	ldr	r1, [r2]
80013e9c:	e59f24c0 	ldr	r2, [pc, #1216]	; 80014364 <page_check+0xf18>
80013ea0:	e0022001 	and	r2, r2, r1
80013ea4:	e3520000 	cmp	r2, #0
80013ea8:	13c11eff 	bicne	r1, r1, #4080	; 0xff0
80013eac:	13c1100f 	bicne	r1, r1, #15
80013eb0:	0affff05 	beq	80013acc <page_check+0x680>
80013eb4:	eaffff05 	b	80013ad0 <page_check+0x684>
80013eb8:	e3c33fff 	bic	r3, r3, #1020	; 0x3fc
80013ebc:	e3c33003 	bic	r3, r3, #3
80013ec0:	e5962000 	ldr	r2, [r6]
80013ec4:	e283c103 	add	ip, r3, #-1073741824	; 0xc0000000
80013ec8:	e152062c 	cmp	r2, ip, lsr #12
80013ecc:	9a000100 	bls	800142d4 <page_check+0xe88>
80013ed0:	e2833101 	add	r3, r3, #1073741824	; 0x40000000
80013ed4:	e5937004 	ldr	r7, [r3, #4]
80013ed8:	e59f3484 	ldr	r3, [pc, #1156]	; 80014364 <page_check+0xf18>
80013edc:	e0033007 	and	r3, r3, r7
80013ee0:	e3530000 	cmp	r3, #0
80013ee4:	13c77eff 	bicne	r7, r7, #4080	; 0xff0
80013ee8:	13c7700f 	bicne	r7, r7, #15
80013eec:	0affff06 	beq	80013b0c <page_check+0x6c0>
80013ef0:	eaffff06 	b	80013b10 <page_check+0x6c4>
80013ef4:	e3c33fff 	bic	r3, r3, #1020	; 0x3fc
80013ef8:	e3c33003 	bic	r3, r3, #3
80013efc:	e5962000 	ldr	r2, [r6]
80013f00:	e2831103 	add	r1, r3, #-1073741824	; 0xc0000000
80013f04:	e1520621 	cmp	r2, r1, lsr #12
80013f08:	9a0000f1 	bls	800142d4 <page_check+0xe88>
80013f0c:	e2832101 	add	r2, r3, #1073741824	; 0x40000000
80013f10:	e5921000 	ldr	r1, [r2]
80013f14:	e59f2448 	ldr	r2, [pc, #1096]	; 80014364 <page_check+0xf18>
80013f18:	e0022001 	and	r2, r2, r1
80013f1c:	e3520000 	cmp	r2, #0
80013f20:	1a00009f 	bne	800141a4 <page_check+0xd58>
80013f24:	e5962000 	ldr	r2, [r6]
80013f28:	e2831103 	add	r1, r3, #-1073741824	; 0xc0000000
80013f2c:	e1520621 	cmp	r2, r1, lsr #12
80013f30:	9a0000e7 	bls	800142d4 <page_check+0xe88>
80013f34:	e2833101 	add	r3, r3, #1073741824	; 0x40000000
80013f38:	e5930004 	ldr	r0, [r3, #4]
80013f3c:	e59f3420 	ldr	r3, [pc, #1056]	; 80014364 <page_check+0xf18>
80013f40:	e0033000 	and	r3, r3, r0
80013f44:	e3530000 	cmp	r3, #0
80013f48:	13c00eff 	bicne	r0, r0, #4080	; 0xff0
80013f4c:	13c0000f 	bicne	r0, r0, #15
80013f50:	0affff12 	beq	80013ba0 <page_check+0x754>
80013f54:	eaffff12 	b	80013ba4 <page_check+0x758>
80013f58:	e3c33fff 	bic	r3, r3, #1020	; 0x3fc
80013f5c:	e3c33003 	bic	r3, r3, #3
80013f60:	e5962000 	ldr	r2, [r6]
80013f64:	e2831103 	add	r1, r3, #-1073741824	; 0xc0000000
80013f68:	e1520621 	cmp	r2, r1, lsr #12
80013f6c:	9a0000d8 	bls	800142d4 <page_check+0xe88>
80013f70:	e2833101 	add	r3, r3, #1073741824	; 0x40000000
80013f74:	e5931000 	ldr	r1, [r3]
80013f78:	e59f23e4 	ldr	r2, [pc, #996]	; 80014364 <page_check+0xf18>
80013f7c:	e1110002 	tst	r1, r2
80013f80:	1a000091 	bne	800141cc <page_check+0xd80>
80013f84:	e5933004 	ldr	r3, [r3, #4]
80013f88:	e1130002 	tst	r3, r2
80013f8c:	0affff25 	beq	80013c28 <page_check+0x7dc>
80013f90:	e59f33d0 	ldr	r3, [pc, #976]	; 80014368 <page_check+0xf1c>
80013f94:	e59f23bc 	ldr	r2, [pc, #956]	; 80014358 <page_check+0xf0c>
80013f98:	e3a01e27 	mov	r1, #624	; 0x270
80013f9c:	e59f03bc 	ldr	r0, [pc, #956]	; 80014360 <page_check+0xf14>
80013fa0:	ebfff7ec 	bl	80011f58 <_panic>
80013fa4:	e2833101 	add	r3, r3, #1073741824	; 0x40000000
80013fa8:	e59f23bc 	ldr	r2, [pc, #956]	; 8001436c <page_check+0xf20>
80013fac:	e3a0103b 	mov	r1, #59	; 0x3b
80013fb0:	e59f03b8 	ldr	r0, [pc, #952]	; 80014370 <page_check+0xf24>
80013fb4:	ebfff7e7 	bl	80011f58 <_panic>
80013fb8:	e59f33b4 	ldr	r3, [pc, #948]	; 80014374 <page_check+0xf28>
80013fbc:	e59f2394 	ldr	r2, [pc, #916]	; 80014358 <page_check+0xf0c>
80013fc0:	e59f13b0 	ldr	r1, [pc, #944]	; 80014378 <page_check+0xf2c>
80013fc4:	e59f0394 	ldr	r0, [pc, #916]	; 80014360 <page_check+0xf14>
80013fc8:	ebfff7e2 	bl	80011f58 <_panic>
80013fcc:	e59f33a8 	ldr	r3, [pc, #936]	; 8001437c <page_check+0xf30>
80013fd0:	e59f2380 	ldr	r2, [pc, #896]	; 80014358 <page_check+0xf0c>
80013fd4:	e3a01f99 	mov	r1, #612	; 0x264
80013fd8:	e59f0380 	ldr	r0, [pc, #896]	; 80014360 <page_check+0xf14>
80013fdc:	ebfff7dd 	bl	80011f58 <_panic>
80013fe0:	e59f3398 	ldr	r3, [pc, #920]	; 80014380 <page_check+0xf34>
80013fe4:	e59f236c 	ldr	r2, [pc, #876]	; 80014358 <page_check+0xf0c>
80013fe8:	e59f1394 	ldr	r1, [pc, #916]	; 80014384 <page_check+0xf38>
80013fec:	e59f036c 	ldr	r0, [pc, #876]	; 80014360 <page_check+0xf14>
80013ff0:	ebfff7d8 	bl	80011f58 <_panic>
80013ff4:	e59f338c 	ldr	r3, [pc, #908]	; 80014388 <page_check+0xf3c>
80013ff8:	e59f2358 	ldr	r2, [pc, #856]	; 80014358 <page_check+0xf0c>
80013ffc:	e59f1388 	ldr	r1, [pc, #904]	; 8001438c <page_check+0xf40>
80014000:	e59f0358 	ldr	r0, [pc, #856]	; 80014360 <page_check+0xf14>
80014004:	ebfff7d3 	bl	80011f58 <_panic>
80014008:	e59f3380 	ldr	r3, [pc, #896]	; 80014390 <page_check+0xf44>
8001400c:	e59f2344 	ldr	r2, [pc, #836]	; 80014358 <page_check+0xf0c>
80014010:	e59f137c 	ldr	r1, [pc, #892]	; 80014394 <page_check+0xf48>
80014014:	e59f0344 	ldr	r0, [pc, #836]	; 80014360 <page_check+0xf14>
80014018:	ebfff7ce 	bl	80011f58 <_panic>
8001401c:	e59f3374 	ldr	r3, [pc, #884]	; 80014398 <page_check+0xf4c>
80014020:	e59f2330 	ldr	r2, [pc, #816]	; 80014358 <page_check+0xf0c>
80014024:	e3a01d09 	mov	r1, #576	; 0x240
80014028:	e59f0330 	ldr	r0, [pc, #816]	; 80014360 <page_check+0xf14>
8001402c:	ebfff7c9 	bl	80011f58 <_panic>
80014030:	e59f3364 	ldr	r3, [pc, #868]	; 8001439c <page_check+0xf50>
80014034:	e59f231c 	ldr	r2, [pc, #796]	; 80014358 <page_check+0xf0c>
80014038:	e59f1360 	ldr	r1, [pc, #864]	; 800143a0 <page_check+0xf54>
8001403c:	e59f031c 	ldr	r0, [pc, #796]	; 80014360 <page_check+0xf14>
80014040:	ebfff7c4 	bl	80011f58 <_panic>
80014044:	e59f3358 	ldr	r3, [pc, #856]	; 800143a4 <page_check+0xf58>
80014048:	e59f2308 	ldr	r2, [pc, #776]	; 80014358 <page_check+0xf0c>
8001404c:	e59f1354 	ldr	r1, [pc, #852]	; 800143a8 <page_check+0xf5c>
80014050:	e59f0308 	ldr	r0, [pc, #776]	; 80014360 <page_check+0xf14>
80014054:	ebfff7bf 	bl	80011f58 <_panic>
80014058:	e59f334c 	ldr	r3, [pc, #844]	; 800143ac <page_check+0xf60>
8001405c:	e59f22f4 	ldr	r2, [pc, #756]	; 80014358 <page_check+0xf0c>
80014060:	e3a01f8a 	mov	r1, #552	; 0x228
80014064:	e59f02f4 	ldr	r0, [pc, #756]	; 80014360 <page_check+0xf14>
80014068:	ebfff7ba 	bl	80011f58 <_panic>
8001406c:	e59f333c 	ldr	r3, [pc, #828]	; 800143b0 <page_check+0xf64>
80014070:	e59f22e0 	ldr	r2, [pc, #736]	; 80014358 <page_check+0xf0c>
80014074:	e3a01f89 	mov	r1, #548	; 0x224
80014078:	e59f02e0 	ldr	r0, [pc, #736]	; 80014360 <page_check+0xf14>
8001407c:	ebfff7b5 	bl	80011f58 <_panic>
80014080:	e59f32cc 	ldr	r3, [pc, #716]	; 80014354 <page_check+0xf08>
80014084:	e59f22cc 	ldr	r2, [pc, #716]	; 80014358 <page_check+0xf0c>
80014088:	e59f1324 	ldr	r1, [pc, #804]	; 800143b4 <page_check+0xf68>
8001408c:	e59f02cc 	ldr	r0, [pc, #716]	; 80014360 <page_check+0xf14>
80014090:	ebfff7b0 	bl	80011f58 <_panic>
80014094:	e59f3300 	ldr	r3, [pc, #768]	; 8001439c <page_check+0xf50>
80014098:	e59f22b8 	ldr	r2, [pc, #696]	; 80014358 <page_check+0xf0c>
8001409c:	e59f1314 	ldr	r1, [pc, #788]	; 800143b8 <page_check+0xf6c>
800140a0:	e59f02b8 	ldr	r0, [pc, #696]	; 80014360 <page_check+0xf14>
800140a4:	ebfff7ab 	bl	80011f58 <_panic>
800140a8:	e59f330c 	ldr	r3, [pc, #780]	; 800143bc <page_check+0xf70>
800140ac:	e59f22a4 	ldr	r2, [pc, #676]	; 80014358 <page_check+0xf0c>
800140b0:	e59f1308 	ldr	r1, [pc, #776]	; 800143c0 <page_check+0xf74>
800140b4:	e59f02a4 	ldr	r0, [pc, #676]	; 80014360 <page_check+0xf14>
800140b8:	ebfff7a6 	bl	80011f58 <_panic>
800140bc:	e59f3300 	ldr	r3, [pc, #768]	; 800143c4 <page_check+0xf78>
800140c0:	e59f2290 	ldr	r2, [pc, #656]	; 80014358 <page_check+0xf0c>
800140c4:	e3a01f97 	mov	r1, #604	; 0x25c
800140c8:	e59f0290 	ldr	r0, [pc, #656]	; 80014360 <page_check+0xf14>
800140cc:	ebfff7a1 	bl	80011f58 <_panic>
800140d0:	e59f32f0 	ldr	r3, [pc, #752]	; 800143c8 <page_check+0xf7c>
800140d4:	e59f227c 	ldr	r2, [pc, #636]	; 80014358 <page_check+0xf0c>
800140d8:	e3a01f96 	mov	r1, #600	; 0x258
800140dc:	e59f027c 	ldr	r0, [pc, #636]	; 80014360 <page_check+0xf14>
800140e0:	ebfff79c 	bl	80011f58 <_panic>
800140e4:	e59f32e0 	ldr	r3, [pc, #736]	; 800143cc <page_check+0xf80>
800140e8:	e59f2268 	ldr	r2, [pc, #616]	; 80014358 <page_check+0xf0c>
800140ec:	e59f12dc 	ldr	r1, [pc, #732]	; 800143d0 <page_check+0xf84>
800140f0:	e59f0268 	ldr	r0, [pc, #616]	; 80014360 <page_check+0xf14>
800140f4:	ebfff797 	bl	80011f58 <_panic>
800140f8:	e59f32d4 	ldr	r3, [pc, #724]	; 800143d4 <page_check+0xf88>
800140fc:	e59f2254 	ldr	r2, [pc, #596]	; 80014358 <page_check+0xf0c>
80014100:	e59f12d0 	ldr	r1, [pc, #720]	; 800143d8 <page_check+0xf8c>
80014104:	e59f0254 	ldr	r0, [pc, #596]	; 80014360 <page_check+0xf14>
80014108:	ebfff792 	bl	80011f58 <_panic>
8001410c:	e59f3284 	ldr	r3, [pc, #644]	; 80014398 <page_check+0xf4c>
80014110:	e59f2240 	ldr	r2, [pc, #576]	; 80014358 <page_check+0xf0c>
80014114:	e59f12c0 	ldr	r1, [pc, #704]	; 800143dc <page_check+0xf90>
80014118:	e59f0240 	ldr	r0, [pc, #576]	; 80014360 <page_check+0xf14>
8001411c:	ebfff78d 	bl	80011f58 <_panic>
80014120:	e59f329c 	ldr	r3, [pc, #668]	; 800143c4 <page_check+0xf78>
80014124:	e59f222c 	ldr	r2, [pc, #556]	; 80014358 <page_check+0xf0c>
80014128:	e59f12b0 	ldr	r1, [pc, #688]	; 800143e0 <page_check+0xf94>
8001412c:	e59f022c 	ldr	r0, [pc, #556]	; 80014360 <page_check+0xf14>
80014130:	ebfff788 	bl	80011f58 <_panic>
80014134:	e59f2230 	ldr	r2, [pc, #560]	; 8001436c <page_check+0xf20>
80014138:	e59f12a4 	ldr	r1, [pc, #676]	; 800143e4 <page_check+0xf98>
8001413c:	e59f021c 	ldr	r0, [pc, #540]	; 80014360 <page_check+0xf14>
80014140:	ebfff784 	bl	80011f58 <_panic>
80014144:	e59f2220 	ldr	r2, [pc, #544]	; 8001436c <page_check+0xf20>
80014148:	e59f1298 	ldr	r1, [pc, #664]	; 800143e8 <page_check+0xf9c>
8001414c:	e59f020c 	ldr	r0, [pc, #524]	; 80014360 <page_check+0xf14>
80014150:	ebfff780 	bl	80011f58 <_panic>
80014154:	e59f3290 	ldr	r3, [pc, #656]	; 800143ec <page_check+0xfa0>
80014158:	e59f21f8 	ldr	r2, [pc, #504]	; 80014358 <page_check+0xf0c>
8001415c:	e59f128c 	ldr	r1, [pc, #652]	; 800143f0 <page_check+0xfa4>
80014160:	e59f01f8 	ldr	r0, [pc, #504]	; 80014360 <page_check+0xf14>
80014164:	ebfff77b 	bl	80011f58 <_panic>
80014168:	e59f3284 	ldr	r3, [pc, #644]	; 800143f4 <page_check+0xfa8>
8001416c:	e59f21e4 	ldr	r2, [pc, #484]	; 80014358 <page_check+0xf0c>
80014170:	e3a01e26 	mov	r1, #608	; 0x260
80014174:	e59f01e4 	ldr	r0, [pc, #484]	; 80014360 <page_check+0xf14>
80014178:	ebfff776 	bl	80011f58 <_panic>
8001417c:	e2823101 	add	r3, r2, #1073741824	; 0x40000000
80014180:	e3a0103b 	mov	r1, #59	; 0x3b
80014184:	e59f21e0 	ldr	r2, [pc, #480]	; 8001436c <page_check+0xf20>
80014188:	e59f01e0 	ldr	r0, [pc, #480]	; 80014370 <page_check+0xf24>
8001418c:	ebfff771 	bl	80011f58 <_panic>
80014190:	e59f3204 	ldr	r3, [pc, #516]	; 8001439c <page_check+0xf50>
80014194:	e59f21bc 	ldr	r2, [pc, #444]	; 80014358 <page_check+0xf0c>
80014198:	e3a01f92 	mov	r1, #584	; 0x248
8001419c:	e59f01bc 	ldr	r0, [pc, #444]	; 80014360 <page_check+0xf14>
800141a0:	ebfff76c 	bl	80011f58 <_panic>
800141a4:	e59f324c 	ldr	r3, [pc, #588]	; 800143f8 <page_check+0xfac>
800141a8:	e59f21a8 	ldr	r2, [pc, #424]	; 80014358 <page_check+0xf0c>
800141ac:	e3a01f9a 	mov	r1, #616	; 0x268
800141b0:	e59f01a8 	ldr	r0, [pc, #424]	; 80014360 <page_check+0xf14>
800141b4:	ebfff767 	bl	80011f58 <_panic>
800141b8:	e59f323c 	ldr	r3, [pc, #572]	; 800143fc <page_check+0xfb0>
800141bc:	e59f2194 	ldr	r2, [pc, #404]	; 80014358 <page_check+0xf0c>
800141c0:	e59f1238 	ldr	r1, [pc, #568]	; 80014400 <page_check+0xfb4>
800141c4:	e59f0194 	ldr	r0, [pc, #404]	; 80014360 <page_check+0xf14>
800141c8:	ebfff762 	bl	80011f58 <_panic>
800141cc:	e59f3224 	ldr	r3, [pc, #548]	; 800143f8 <page_check+0xfac>
800141d0:	e59f2180 	ldr	r2, [pc, #384]	; 80014358 <page_check+0xf0c>
800141d4:	e59f1228 	ldr	r1, [pc, #552]	; 80014404 <page_check+0xfb8>
800141d8:	e59f0180 	ldr	r0, [pc, #384]	; 80014360 <page_check+0xf14>
800141dc:	ebfff75d 	bl	80011f58 <_panic>
800141e0:	e59f320c 	ldr	r3, [pc, #524]	; 800143f4 <page_check+0xfa8>
800141e4:	e59f216c 	ldr	r2, [pc, #364]	; 80014358 <page_check+0xf0c>
800141e8:	e59f1218 	ldr	r1, [pc, #536]	; 80014408 <page_check+0xfbc>
800141ec:	e59f016c 	ldr	r0, [pc, #364]	; 80014360 <page_check+0xf14>
800141f0:	ebfff758 	bl	80011f58 <_panic>
800141f4:	e59f3210 	ldr	r3, [pc, #528]	; 8001440c <page_check+0xfc0>
800141f8:	e59f2158 	ldr	r2, [pc, #344]	; 80014358 <page_check+0xf0c>
800141fc:	e3a01f91 	mov	r1, #580	; 0x244
80014200:	e59f0158 	ldr	r0, [pc, #344]	; 80014360 <page_check+0xf14>
80014204:	ebfff753 	bl	80011f58 <_panic>
80014208:	e59f3194 	ldr	r3, [pc, #404]	; 800143a4 <page_check+0xf58>
8001420c:	e59f2144 	ldr	r2, [pc, #324]	; 80014358 <page_check+0xf0c>
80014210:	e3a01f93 	mov	r1, #588	; 0x24c
80014214:	e59f0144 	ldr	r0, [pc, #324]	; 80014360 <page_check+0xf14>
80014218:	ebfff74e 	bl	80011f58 <_panic>
8001421c:	e59f31a8 	ldr	r3, [pc, #424]	; 800143cc <page_check+0xf80>
80014220:	e59f2130 	ldr	r2, [pc, #304]	; 80014358 <page_check+0xf0c>
80014224:	e59f11e4 	ldr	r1, [pc, #484]	; 80014410 <page_check+0xfc4>
80014228:	e59f0130 	ldr	r0, [pc, #304]	; 80014360 <page_check+0xf14>
8001422c:	ebfff749 	bl	80011f58 <_panic>
80014230:	e59f31d4 	ldr	r3, [pc, #468]	; 8001440c <page_check+0xfc0>
80014234:	e59f211c 	ldr	r2, [pc, #284]	; 80014358 <page_check+0xf0c>
80014238:	e59f11d4 	ldr	r1, [pc, #468]	; 80014414 <page_check+0xfc8>
8001423c:	e59f011c 	ldr	r0, [pc, #284]	; 80014360 <page_check+0xf14>
80014240:	ebfff744 	bl	80011f58 <_panic>
80014244:	e59f31cc 	ldr	r3, [pc, #460]	; 80014418 <page_check+0xfcc>
80014248:	e59f2108 	ldr	r2, [pc, #264]	; 80014358 <page_check+0xf0c>
8001424c:	e3a01f85 	mov	r1, #532	; 0x214
80014250:	e59f0108 	ldr	r0, [pc, #264]	; 80014360 <page_check+0xf14>
80014254:	ebfff73f 	bl	80011f58 <_panic>
80014258:	e59f3194 	ldr	r3, [pc, #404]	; 800143f4 <page_check+0xfa8>
8001425c:	e59f20f4 	ldr	r2, [pc, #244]	; 80014358 <page_check+0xf0c>
80014260:	e59f11b4 	ldr	r1, [pc, #436]	; 8001441c <page_check+0xfd0>
80014264:	e59f00f4 	ldr	r0, [pc, #244]	; 80014360 <page_check+0xf14>
80014268:	ebfff73a 	bl	80011f58 <_panic>
8001426c:	e59f311c 	ldr	r3, [pc, #284]	; 80014390 <page_check+0xf44>
80014270:	e59f20e0 	ldr	r2, [pc, #224]	; 80014358 <page_check+0xf0c>
80014274:	e59f11a4 	ldr	r1, [pc, #420]	; 80014420 <page_check+0xfd4>
80014278:	e59f00e0 	ldr	r0, [pc, #224]	; 80014360 <page_check+0xf14>
8001427c:	ebfff735 	bl	80011f58 <_panic>
80014280:	e59f3114 	ldr	r3, [pc, #276]	; 8001439c <page_check+0xf50>
80014284:	e59f20cc 	ldr	r2, [pc, #204]	; 80014358 <page_check+0xf0c>
80014288:	e3a01f9e 	mov	r1, #632	; 0x278
8001428c:	e59f00cc 	ldr	r0, [pc, #204]	; 80014360 <page_check+0xf14>
80014290:	ebfff730 	bl	80011f58 <_panic>
80014294:	e59f3188 	ldr	r3, [pc, #392]	; 80014424 <page_check+0xfd8>
80014298:	e59f20b8 	ldr	r2, [pc, #184]	; 80014358 <page_check+0xf0c>
8001429c:	e59f1184 	ldr	r1, [pc, #388]	; 80014428 <page_check+0xfdc>
800142a0:	e59f00b8 	ldr	r0, [pc, #184]	; 80014360 <page_check+0xf14>
800142a4:	ebfff72b 	bl	80011f58 <_panic>
800142a8:	e59f317c 	ldr	r3, [pc, #380]	; 8001442c <page_check+0xfe0>
800142ac:	e59f20a4 	ldr	r2, [pc, #164]	; 80014358 <page_check+0xf0c>
800142b0:	e59f1178 	ldr	r1, [pc, #376]	; 80014430 <page_check+0xfe4>
800142b4:	e59f00a4 	ldr	r0, [pc, #164]	; 80014360 <page_check+0xf14>
800142b8:	ebfff726 	bl	80011f58 <_panic>
800142bc:	e59f3170 	ldr	r3, [pc, #368]	; 80014434 <page_check+0xfe8>
800142c0:	e59f2090 	ldr	r2, [pc, #144]	; 80014358 <page_check+0xf0c>
800142c4:	e3a01e21 	mov	r1, #528	; 0x210
800142c8:	e59f0090 	ldr	r0, [pc, #144]	; 80014360 <page_check+0xf14>
800142cc:	ebfff721 	bl	80011f58 <_panic>
800142d0:	e1a03002 	mov	r3, r2
800142d4:	e59f2090 	ldr	r2, [pc, #144]	; 8001436c <page_check+0xf20>
800142d8:	e3a0104e 	mov	r1, #78	; 0x4e
800142dc:	e59f008c 	ldr	r0, [pc, #140]	; 80014370 <page_check+0xf24>
800142e0:	ebfff71c 	bl	80011f58 <_panic>
800142e4:	800151e4 	.word	0x800151e4
800142e8:	80024a64 	.word	0x80024a64
800142ec:	8001fff0 	.word	0x8001fff0
800142f0:	80015208 	.word	0x80015208
800142f4:	80023fe0 	.word	0x80023fe0
800142f8:	800152bc 	.word	0x800152bc
800142fc:	80024a6c 	.word	0x80024a6c
80014300:	800152e0 	.word	0x800152e0
80014304:	800152fc 	.word	0x800152fc
80014308:	fffffc00 	.word	0xfffffc00
8001430c:	80015318 	.word	0x80015318
80014310:	80015344 	.word	0x80015344
80014314:	80015380 	.word	0x80015380
80014318:	8001538c 	.word	0x8001538c
8001431c:	003badb8 	.word	0x003badb8
80014320:	0010bac7 	.word	0x0010bac7
80014324:	000004d2 	.word	0x000004d2
80014328:	000010e1 	.word	0x000010e1
8001432c:	00050402 	.word	0x00050402
80014330:	00010402 	.word	0x00010402
80014334:	800153a4 	.word	0x800153a4
80014338:	800153c4 	.word	0x800153c4
8001433c:	00401000 	.word	0x00401000
80014340:	80020000 	.word	0x80020000
80014344:	8001548c 	.word	0x8001548c
80014348:	80015548 	.word	0x80015548
8001434c:	8001556c 	.word	0x8001556c
80014350:	80015630 	.word	0x80015630
80014354:	800153d8 	.word	0x800153d8
80014358:	8001495c 	.word	0x8001495c
8001435c:	0000025b 	.word	0x0000025b
80014360:	80014ff8 	.word	0x80014ff8
80014364:	0000042a 	.word	0x0000042a
80014368:	800155c0 	.word	0x800155c0
8001436c:	800147f4 	.word	0x800147f4
80014370:	80014818 	.word	0x80014818
80014374:	8001512c 	.word	0x8001512c
80014378:	00000216 	.word	0x00000216
8001437c:	80015580 	.word	0x80015580
80014380:	80015118 	.word	0x80015118
80014384:	00000215 	.word	0x00000215
80014388:	800155f8 	.word	0x800155f8
8001438c:	00000275 	.word	0x00000275
80014390:	8001528c 	.word	0x8001528c
80014394:	00000229 	.word	0x00000229
80014398:	80015400 	.word	0x80015400
8001439c:	8001514c 	.word	0x8001514c
800143a0:	00000252 	.word	0x00000252
800143a4:	80015414 	.word	0x80015414
800143a8:	00000243 	.word	0x00000243
800143ac:	80015260 	.word	0x80015260
800143b0:	80015238 	.word	0x80015238
800143b4:	0000023f 	.word	0x0000023f
800143b8:	0000021f 	.word	0x0000021f
800143bc:	80015534 	.word	0x80015534
800143c0:	0000025e 	.word	0x0000025e
800143c4:	80015504 	.word	0x80015504
800143c8:	800154d0 	.word	0x800154d0
800143cc:	80015478 	.word	0x80015478
800143d0:	00000245 	.word	0x00000245
800143d4:	8001561c 	.word	0x8001561c
800143d8:	0000027d 	.word	0x0000027d
800143dc:	0000026a 	.word	0x0000026a
800143e0:	00000269 	.word	0x00000269
800143e4:	0000022f 	.word	0x0000022f
800143e8:	0000022e 	.word	0x0000022e
800143ec:	800154a0 	.word	0x800154a0
800143f0:	00000255 	.word	0x00000255
800143f4:	80015558 	.word	0x80015558
800143f8:	800155a4 	.word	0x800155a4
800143fc:	800155e4 	.word	0x800155e4
80014400:	00000271 	.word	0x00000271
80014404:	0000026f 	.word	0x0000026f
80014408:	0000026b 	.word	0x0000026b
8001440c:	80015448 	.word	0x80015448
80014410:	0000024e 	.word	0x0000024e
80014414:	0000024d 	.word	0x0000024d
80014418:	80015148 	.word	0x80015148
8001441c:	00000272 	.word	0x00000272
80014420:	0000027b 	.word	0x0000027b
80014424:	80015100 	.word	0x80015100
80014428:	00000212 	.word	0x00000212
8001442c:	800150e8 	.word	0x800150e8
80014430:	00000211 	.word	0x00000211
80014434:	800150d0 	.word	0x800150d0

80014438 <pageout>:
80014438:	e3a03000 	mov	r3, #0
8001443c:	e92d4030 	push	{r4, r5, lr}
80014440:	e2515000 	subs	r5, r1, #0
80014444:	e24dd00c 	sub	sp, sp, #12
80014448:	e58d3004 	str	r3, [sp, #4]
8001444c:	aa000017 	bge	800144b0 <pageout+0x78>
80014450:	e240335f 	sub	r3, r0, #2080374785	; 0x7c000001
80014454:	e59f2084 	ldr	r2, [pc, #132]	; 800144e0 <pageout+0xa8>
80014458:	e243350d 	sub	r3, r3, #54525952	; 0x3400000
8001445c:	e1530002 	cmp	r3, r2
80014460:	e1a04000 	mov	r4, r0
80014464:	9a000019 	bls	800144d0 <pageout+0x98>
80014468:	e3500801 	cmp	r0, #65536	; 0x10000
8001446c:	ba000013 	blt	800144c0 <pageout+0x88>
80014470:	e28d0004 	add	r0, sp, #4
80014474:	ebfff9cd 	bl	80012bb0 <page_alloc>
80014478:	e59d1004 	ldr	r1, [sp, #4]
8001447c:	e3c42eff 	bic	r2, r4, #4080	; 0xff0
80014480:	e1d130b8 	ldrh	r3, [r1, #8]
80014484:	e3c2200f 	bic	r2, r2, #15
80014488:	e2833001 	add	r3, r3, #1
8001448c:	e1c130b8 	strh	r3, [r1, #8]
80014490:	e1a00005 	mov	r0, r5
80014494:	e3a03030 	mov	r3, #48	; 0x30
80014498:	ebfffaa9 	bl	80012f44 <page_insert>
8001449c:	e1a01004 	mov	r1, r4
800144a0:	e59f003c 	ldr	r0, [pc, #60]	; 800144e4 <pageout+0xac>
800144a4:	ebfff69c 	bl	80011f1c <printf>
800144a8:	e28dd00c 	add	sp, sp, #12
800144ac:	e8bd8030 	pop	{r4, r5, pc}
800144b0:	e59f2030 	ldr	r2, [pc, #48]	; 800144e8 <pageout+0xb0>
800144b4:	e59f1030 	ldr	r1, [pc, #48]	; 800144ec <pageout+0xb4>
800144b8:	e59f0030 	ldr	r0, [pc, #48]	; 800144f0 <pageout+0xb8>
800144bc:	ebfff6a5 	bl	80011f58 <_panic>
800144c0:	e59f202c 	ldr	r2, [pc, #44]	; 800144f4 <pageout+0xbc>
800144c4:	e59f102c 	ldr	r1, [pc, #44]	; 800144f8 <pageout+0xc0>
800144c8:	e59f0020 	ldr	r0, [pc, #32]	; 800144f0 <pageout+0xb8>
800144cc:	ebfff6a1 	bl	80011f58 <_panic>
800144d0:	e59f2024 	ldr	r2, [pc, #36]	; 800144fc <pageout+0xc4>
800144d4:	e59f1024 	ldr	r1, [pc, #36]	; 80014500 <pageout+0xc8>
800144d8:	e59f0010 	ldr	r0, [pc, #16]	; 800144f0 <pageout+0xb8>
800144dc:	ebfff69d 	bl	80011f58 <_panic>
800144e0:	003ffffe 	.word	0x003ffffe
800144e4:	800156a8 	.word	0x800156a8
800144e8:	8001564c 	.word	0x8001564c
800144ec:	00000291 	.word	0x00000291
800144f0:	80014ff8 	.word	0x80014ff8
800144f4:	80015690 	.word	0x80015690
800144f8:	00000299 	.word	0x00000299
800144fc:	80015668 	.word	0x80015668
80014500:	00000295 	.word	0x00000295

80014504 <__aeabi_uidiv>:
80014504:	e2512001 	subs	r2, r1, #1
80014508:	012fff1e 	bxeq	lr
8001450c:	3a000074 	bcc	800146e4 <__aeabi_uidiv+0x1e0>
80014510:	e1500001 	cmp	r0, r1
80014514:	9a00006b 	bls	800146c8 <__aeabi_uidiv+0x1c4>
80014518:	e1110002 	tst	r1, r2
8001451c:	0a00006c 	beq	800146d4 <__aeabi_uidiv+0x1d0>
80014520:	e16f3f10 	clz	r3, r0
80014524:	e16f2f11 	clz	r2, r1
80014528:	e0423003 	sub	r3, r2, r3
8001452c:	e273301f 	rsbs	r3, r3, #31
80014530:	10833083 	addne	r3, r3, r3, lsl #1
80014534:	e3a02000 	mov	r2, #0
80014538:	108ff103 	addne	pc, pc, r3, lsl #2
8001453c:	e1a00000 	nop			; (mov r0, r0)
80014540:	e1500f81 	cmp	r0, r1, lsl #31
80014544:	e0a22002 	adc	r2, r2, r2
80014548:	20400f81 	subcs	r0, r0, r1, lsl #31
8001454c:	e1500f01 	cmp	r0, r1, lsl #30
80014550:	e0a22002 	adc	r2, r2, r2
80014554:	20400f01 	subcs	r0, r0, r1, lsl #30
80014558:	e1500e81 	cmp	r0, r1, lsl #29
8001455c:	e0a22002 	adc	r2, r2, r2
80014560:	20400e81 	subcs	r0, r0, r1, lsl #29
80014564:	e1500e01 	cmp	r0, r1, lsl #28
80014568:	e0a22002 	adc	r2, r2, r2
8001456c:	20400e01 	subcs	r0, r0, r1, lsl #28
80014570:	e1500d81 	cmp	r0, r1, lsl #27
80014574:	e0a22002 	adc	r2, r2, r2
80014578:	20400d81 	subcs	r0, r0, r1, lsl #27
8001457c:	e1500d01 	cmp	r0, r1, lsl #26
80014580:	e0a22002 	adc	r2, r2, r2
80014584:	20400d01 	subcs	r0, r0, r1, lsl #26
80014588:	e1500c81 	cmp	r0, r1, lsl #25
8001458c:	e0a22002 	adc	r2, r2, r2
80014590:	20400c81 	subcs	r0, r0, r1, lsl #25
80014594:	e1500c01 	cmp	r0, r1, lsl #24
80014598:	e0a22002 	adc	r2, r2, r2
8001459c:	20400c01 	subcs	r0, r0, r1, lsl #24
800145a0:	e1500b81 	cmp	r0, r1, lsl #23
800145a4:	e0a22002 	adc	r2, r2, r2
800145a8:	20400b81 	subcs	r0, r0, r1, lsl #23
800145ac:	e1500b01 	cmp	r0, r1, lsl #22
800145b0:	e0a22002 	adc	r2, r2, r2
800145b4:	20400b01 	subcs	r0, r0, r1, lsl #22
800145b8:	e1500a81 	cmp	r0, r1, lsl #21
800145bc:	e0a22002 	adc	r2, r2, r2
800145c0:	20400a81 	subcs	r0, r0, r1, lsl #21
800145c4:	e1500a01 	cmp	r0, r1, lsl #20
800145c8:	e0a22002 	adc	r2, r2, r2
800145cc:	20400a01 	subcs	r0, r0, r1, lsl #20
800145d0:	e1500981 	cmp	r0, r1, lsl #19
800145d4:	e0a22002 	adc	r2, r2, r2
800145d8:	20400981 	subcs	r0, r0, r1, lsl #19
800145dc:	e1500901 	cmp	r0, r1, lsl #18
800145e0:	e0a22002 	adc	r2, r2, r2
800145e4:	20400901 	subcs	r0, r0, r1, lsl #18
800145e8:	e1500881 	cmp	r0, r1, lsl #17
800145ec:	e0a22002 	adc	r2, r2, r2
800145f0:	20400881 	subcs	r0, r0, r1, lsl #17
800145f4:	e1500801 	cmp	r0, r1, lsl #16
800145f8:	e0a22002 	adc	r2, r2, r2
800145fc:	20400801 	subcs	r0, r0, r1, lsl #16
80014600:	e1500781 	cmp	r0, r1, lsl #15
80014604:	e0a22002 	adc	r2, r2, r2
80014608:	20400781 	subcs	r0, r0, r1, lsl #15
8001460c:	e1500701 	cmp	r0, r1, lsl #14
80014610:	e0a22002 	adc	r2, r2, r2
80014614:	20400701 	subcs	r0, r0, r1, lsl #14
80014618:	e1500681 	cmp	r0, r1, lsl #13
8001461c:	e0a22002 	adc	r2, r2, r2
80014620:	20400681 	subcs	r0, r0, r1, lsl #13
80014624:	e1500601 	cmp	r0, r1, lsl #12
80014628:	e0a22002 	adc	r2, r2, r2
8001462c:	20400601 	subcs	r0, r0, r1, lsl #12
80014630:	e1500581 	cmp	r0, r1, lsl #11
80014634:	e0a22002 	adc	r2, r2, r2
80014638:	20400581 	subcs	r0, r0, r1, lsl #11
8001463c:	e1500501 	cmp	r0, r1, lsl #10
80014640:	e0a22002 	adc	r2, r2, r2
80014644:	20400501 	subcs	r0, r0, r1, lsl #10
80014648:	e1500481 	cmp	r0, r1, lsl #9
8001464c:	e0a22002 	adc	r2, r2, r2
80014650:	20400481 	subcs	r0, r0, r1, lsl #9
80014654:	e1500401 	cmp	r0, r1, lsl #8
80014658:	e0a22002 	adc	r2, r2, r2
8001465c:	20400401 	subcs	r0, r0, r1, lsl #8
80014660:	e1500381 	cmp	r0, r1, lsl #7
80014664:	e0a22002 	adc	r2, r2, r2
80014668:	20400381 	subcs	r0, r0, r1, lsl #7
8001466c:	e1500301 	cmp	r0, r1, lsl #6
80014670:	e0a22002 	adc	r2, r2, r2
80014674:	20400301 	subcs	r0, r0, r1, lsl #6
80014678:	e1500281 	cmp	r0, r1, lsl #5
8001467c:	e0a22002 	adc	r2, r2, r2
80014680:	20400281 	subcs	r0, r0, r1, lsl #5
80014684:	e1500201 	cmp	r0, r1, lsl #4
80014688:	e0a22002 	adc	r2, r2, r2
8001468c:	20400201 	subcs	r0, r0, r1, lsl #4
80014690:	e1500181 	cmp	r0, r1, lsl #3
80014694:	e0a22002 	adc	r2, r2, r2
80014698:	20400181 	subcs	r0, r0, r1, lsl #3
8001469c:	e1500101 	cmp	r0, r1, lsl #2
800146a0:	e0a22002 	adc	r2, r2, r2
800146a4:	20400101 	subcs	r0, r0, r1, lsl #2
800146a8:	e1500081 	cmp	r0, r1, lsl #1
800146ac:	e0a22002 	adc	r2, r2, r2
800146b0:	20400081 	subcs	r0, r0, r1, lsl #1
800146b4:	e1500001 	cmp	r0, r1
800146b8:	e0a22002 	adc	r2, r2, r2
800146bc:	20400001 	subcs	r0, r0, r1
800146c0:	e1a00002 	mov	r0, r2
800146c4:	e12fff1e 	bx	lr
800146c8:	03a00001 	moveq	r0, #1
800146cc:	13a00000 	movne	r0, #0
800146d0:	e12fff1e 	bx	lr
800146d4:	e16f2f11 	clz	r2, r1
800146d8:	e262201f 	rsb	r2, r2, #31
800146dc:	e1a00230 	lsr	r0, r0, r2
800146e0:	e12fff1e 	bx	lr
800146e4:	e3500000 	cmp	r0, #0
800146e8:	13e00000 	mvnne	r0, #0
800146ec:	ea000007 	b	80014710 <__aeabi_idiv0>

800146f0 <__aeabi_uidivmod>:
800146f0:	e3510000 	cmp	r1, #0
800146f4:	0afffffa 	beq	800146e4 <__aeabi_uidiv+0x1e0>
800146f8:	e92d4003 	push	{r0, r1, lr}
800146fc:	ebffff80 	bl	80014504 <__aeabi_uidiv>
80014700:	e8bd4006 	pop	{r1, r2, lr}
80014704:	e0030092 	mul	r3, r2, r0
80014708:	e0411003 	sub	r1, r1, r3
8001470c:	e12fff1e 	bx	lr

80014710 <__aeabi_idiv0>:
80014710:	e92d4002 	push	{r1, lr}
80014714:	e3a00008 	mov	r0, #8
80014718:	ebffee6a 	bl	800100c8 <raise>
8001471c:	e8bd8002 	pop	{r1, pc}

Disassembly of section .text.startup:

80014720 <main>:
80014720:	e92d4010 	push	{r4, lr}
80014724:	e59f0014 	ldr	r0, [pc, #20]	; 80014740 <main+0x20>
80014728:	ebfff5fb 	bl	80011f1c <printf>
8001472c:	ebffee6d 	bl	800100e8 <armv7_init>
80014730:	e59f200c 	ldr	r2, [pc, #12]	; 80014744 <main+0x24>
80014734:	e3a0101a 	mov	r1, #26
80014738:	e59f0008 	ldr	r0, [pc, #8]	; 80014748 <main+0x28>
8001473c:	ebfff605 	bl	80011f58 <_panic>
80014740:	80014768 	.word	0x80014768
80014744:	80014784 	.word	0x80014784
80014748:	80014760 	.word	0x80014760
